(dp0
S'154.0'
p1
(lp2
F0.2812
aF0.5
aF0.5469
aF0.2031
aF0.4062
aF0.5
aF0.2812
aF0.4844
aF0.5625
aF0.2969
aF0.4219
aF0.4844
aF0.3125
aF0.4375
aF0.5312
aF0.2656
aF0.4531
aF0.4844
aF0.2031
aF0.5156
aF0.6094
aF0.2969
aF0.4375
aF0.5625
aF0.2656
aF0.4375
aF0.5
aF0.2969
aF0.4531
aF0.4688
aF0.4062
aF0.4062
aF0.4531
aF0.2344
aF0.4375
aF0.4844
aF0.2188
aF0.4844
aF0.5156
aF0.2812
aF0.4688
aF0.5156
aF0.3281
aF0.4844
aF0.4688
aF0.2188
aF0.4844
aF0.4375
aF0.25
aF0.4375
aF0.5469
aF0.3281
aF0.5
aF0.5
aF0.3906
aF0.4531
aF0.5469
aF0.3125
aF0.4531
aF0.4688
aF0.25
aF0.4531
aF0.4688
aF0.25
aF0.4219
aF0.4062
aF0.2656
aF0.4844
aF0.4531
aF0.2188
aF0.3906
aF0.4688
aF0.3906
aF0.4219
aF0.5625
aF0.2812
aF0.4531
aF0.5156
aF0.1875
aF0.4219
aF0.4375
aF0.2344
aF0.3125
aF0.5
aF0.25
aF0.4062
aF0.5469
aF0.3125
aF0.4062
aF0.4375
aF0.2812
aF0.4219
aF0.4062
aF0.25
aF0.4219
aF0.5469
aF0.2656
aF0.4375
aF0.4844
aF0.2812
aF0.5156
aF0.5312
aF0.2656
aF0.4688
aF0.5469
aF0.2344
aF0.3906
aF0.5156
aF0.2969
aF0.4219
aF0.4844
aF0.2812
aF0.4844
aF0.5469
aF0.3125
aF0.4688
aF0.5781
aF0.2656
aF0.4062
aF0.5
aF0.2812
aF0.4219
aF0.5156
aF0.3906
aF0.4844
aF0.5
aF0.1875
aF0.5
aF0.4688
aF0.25
aF0.4844
aF0.4375
aF0.3125
aF0.4531
aF0.4844
aF0.2812
aF0.4844
aF0.5781
aF0.3281
aF0.4375
aF0.5156
aF0.2812
aF0.5
aF0.4688
aF0.2969
aF0.3906
aF0.4688
aF0.3438
aF0.5
aF0.5625
aF0.25
aF0.4219
aF0.5156
aF0.25
aF0.4688
aF0.4531
aF0.3125
aF0.4688
aF0.5
aF0.2188
aF0.4219
aF0.4688
aF0.2656
aF0.4219
aF0.4844
aF0.2031
aF0.5312
aF0.5938
aF0.2812
aF0.4219
aF0.5312
aF0.375
aF0.4531
aF0.4844
aF0.2656
aF0.4375
aF0.4844
aF0.2812
aF0.5469
aF0.5312
aF0.2656
aF0.375
aF0.4688
aF0.2656
aF0.3906
aF0.5
aF0.2188
aF0.5
aF0.4375
aF0.3281
aF0.4375
aF0.5312
aF0.4219
aF0.4844
aF0.5156
aF0.2656
aF0.5156
aF0.5312
aF0.3281
aF0.4844
aF0.4531
aF0.2188
aF0.375
aF0.5469
aF0.3438
aF0.4219
aF0.5625
aF0.375
aF0.4688
aF0.5625
aF0.2812
aF0.4375
aF0.4688
aF0.1719
aF0.4688
aF0.5625
aF0.2656
aF0.4531
aF0.4531
aF0.2656
aF0.4375
aF0.5469
aF0.2969
aF0.5
aF0.5
aF0.2656
aF0.4688
aF0.5625
aF0.2188
aF0.4688
aF0.6094
aF0.2031
aF0.4688
aF0.4062
aF0.4062
aF0.4219
aF0.4844
aF0.2031
aF0.5312
aF0.4375
aF0.3125
aF0.4531
aF0.5312
aF0.2188
aF0.4531
aF0.5469
aF0.25
aF0.4688
aF0.5938
aF0.2812
aF0.5
aF0.4688
aF0.3281
aF0.5
aF0.5
aF0.2812
aF0.4219
aF0.5469
aF0.3438
aF0.4844
aF0.5312
aF0.1562
aF0.4375
aF0.4688
aF0.2969
aF0.4375
aF0.4688
aF0.2969
aF0.4688
aF0.4375
aF0.2812
aF0.3906
aF0.5
aF0.2969
aF0.5
aF0.5625
aF0.2188
aF0.3594
aF0.4688
aF0.2812
aF0.4062
aF0.5469
aF0.2031
aF0.3906
aF0.4688
aF0.3438
aF0.5625
aF0.4688
aF0.2344
aF0.4531
aF0.5
aF0.2344
aF0.4219
aF0.4375
aF0.3125
aF0.5
aF0.5625
aF0.2812
aF0.4219
aF0.5469
aF0.2969
aF0.4219
aF0.5156
aF0.2344
aF0.5312
aF0.4688
aF0.1562
aF0.4375
aF0.4688
aF0.3438
aF0.3594
aF0.5469
aF0.3906
aF0.4219
aF0.6406
aF0.3125
aF0.4531
aF0.5312
aF0.2031
aF0.4375
aF0.4531
aF0.2812
aF0.4062
aF0.5625
aF0.3125
aF0.4844
aF0.5469
aF0.2344
aF0.5
aF0.4375
aF0.3125
aF0.4062
aF0.5938
aF0.2656
aF0.3906
aF0.5469
aF0.3281
aF0.4531
aF0.4219
aF0.2969
aF0.4375
aF0.5312
aF0.2031
aF0.4219
aF0.5156
aF0.2656
aF0.5156
aF0.6562
aF0.3438
aF0.5
aF0.5312
aF0.2188
aF0.5469
aF0.6094
aF0.2344
aF0.4375
aF0.5312
aF0.25
aF0.4531
aF0.5469
aF0.2969
aF0.4688
aF0.6406
aF0.2344
aF0.4375
aF0.6406
aF0.2344
aF0.4375
aF0.4219
aF0.1719
aF0.4844
aF0.5781
aF0.2188
aF0.4219
aF0.5312
aF0.25
aF0.4219
aF0.5156
aF0.2969
aF0.3906
aF0.5
aF0.2656
aF0.4688
aF0.5469
aF0.1875
aF0.5312
aF0.4844
aF0.2969
aF0.4531
aF0.5625
aF0.1562
aF0.4219
aF0.4844
aF0.2812
aF0.4375
aF0.4531
aF0.3125
aF0.5312
aF0.4688
aF0.2656
aF0.4062
aF0.4844
aF0.2656
aF0.4531
aF0.5469
aF0.2188
aF0.5156
aF0.5625
aF0.2812
aF0.4375
aF0.5469
aF0.2812
aF0.3906
aF0.6094
aF0.2344
aF0.3594
aF0.4531
aF0.1875
aF0.4531
aF0.5469
aF0.2344
aF0.3438
aF0.5625
aF0.1719
aF0.4531
aF0.5156
aF0.2969
aF0.5156
aF0.5469
aF0.2969
aF0.3594
aF0.4219
aF0.2812
aF0.4844
aF0.5312
aF0.2188
aF0.4219
aF0.5625
aF0.2812
aF0.4531
aF0.5625
aF0.2969
aF0.4688
aF0.5312
aF0.25
aF0.3438
aF0.5156
aF0.2812
aF0.4688
aF0.5156
aF0.3594
aF0.5156
aF0.5625
aF0.3281
aF0.4219
aF0.4688
aF0.2812
aF0.4219
aF0.5312
aF0.1562
aF0.4688
aF0.5312
aF0.3438
aF0.4062
aF0.5781
aF0.3438
aF0.5
aF0.5781
aF0.2969
aF0.4375
aF0.5625
aF0.3594
aF0.5
aF0.4844
aF0.2031
aF0.4531
aF0.5625
aF0.2031
aF0.4688
aF0.5781
aF0.3125
aF0.4844
aF0.4688
aF0.2656
aF0.4844
aF0.5
aF0.3594
aF0.4844
aF0.5938
aF0.2031
aF0.5469
aF0.5312
aF0.25
aF0.4375
aF0.5
aF0.3594
aF0.5312
aF0.5
aF0.2188
aF0.4531
aF0.5781
aF0.2188
aF0.5
aF0.5469
aF0.2344
aF0.3594
aF0.5156
aF0.25
aF0.3906
aF0.4844
aF0.2812
aF0.5312
aF0.5938
aF0.2031
aF0.5
aF0.3438
aF0.2188
aF0.4375
aF0.4375
aF0.2656
aF0.4844
aF0.5
aF0.2344
aF0.4375
aF0.5
aF0.2969
aF0.4688
aF0.5469
aF0.2969
aF0.4219
aF0.5
aF0.3125
aF0.5
aF0.5781
aF0.1719
aF0.3594
aF0.5312
aF0.2031
aF0.375
aF0.5
aF0.2969
aF0.4375
aF0.5469
aF0.3438
aF0.4688
aF0.4844
aF0.2656
aF0.3906
aF0.4531
aF0.2969
aF0.3906
aF0.5469
aF0.2812
aF0.5625
aF0.5469
aF0.2656
aF0.4531
aF0.5781
aF0.2188
aF0.3906
aF0.4219
aF0.2656
aF0.4844
aF0.5312
aF0.2812
aF0.5156
aF0.5469
aF0.2656
aF0.4531
aF0.4531
aF0.3438
aF0.5156
aF0.5312
aF0.2969
aF0.4219
aF0.4688
aF0.2656
aF0.5
aF0.4375
aF0.2969
aF0.5
aF0.4688
aF0.2031
aF0.5
aF0.5625
aF0.2812
aF0.375
aF0.5
aF0.3438
aF0.4844
aF0.4531
aF0.2812
aF0.4531
aF0.5
aF0.1719
aF0.4531
aF0.4375
aF0.2344
aF0.4688
aF0.4844
aF0.2656
aF0.4531
aF0.5625
aF0.2812
aF0.4219
aF0.4375
aF0.3125
aF0.5156
aF0.5938
aF0.2656
aF0.5312
aF0.5156
aF0.3125
aF0.4844
aF0.6406
aF0.2188
aF0.5625
aF0.5312
aF0.2812
aF0.4062
aF0.5156
aF0.3906
aF0.5469
aF0.4062
aF0.25
aF0.5312
aF0.4062
aF0.3438
aF0.4219
aF0.5
aF0.2344
aF0.4531
aF0.5312
aF0.3281
aF0.4219
aF0.5156
aF0.3906
aF0.5781
aF0.5625
aF0.2812
aF0.4375
aF0.5625
aF0.3438
aF0.4062
aF0.5312
aF0.2031
aF0.5
aF0.5938
aF0.2188
aF0.4375
aF0.5
aF0.2812
aF0.3906
aF0.5
aF0.2969
aF0.5
aF0.5781
aF0.2188
aF0.3906
aF0.5781
aF0.2812
aF0.4062
aF0.4844
aF0.3438
aF0.2969
aF0.4688
aF0.2031
aF0.5
aF0.5625
aF0.2656
aF0.3906
aF0.5469
aF0.2188
aF0.4531
aF0.5
aF0.25
aF0.5
aF0.4688
aF0.25
aF0.4531
aF0.4375
aF0.2969
aF0.4844
aF0.5781
aF0.3438
aF0.5469
aF0.5625
aF0.25
aF0.4844
aF0.5469
aF0.3438
aF0.4844
aF0.5156
aF0.2344
aF0.4844
aF0.4219
aF0.25
aF0.4688
aF0.4688
aF0.2656
aF0.4688
aF0.4844
aF0.2188
aF0.4375
aF0.5625
aF0.3125
aF0.375
aF0.5312
aF0.3438
aF0.4844
aF0.5156
aF0.2188
aF0.4219
aF0.4531
aF0.3594
aF0.4531
aF0.6562
aF0.25
aF0.4688
aF0.5156
aF0.3281
aF0.4531
aF0.4688
aF0.3125
aF0.4688
aF0.5312
aF0.25
aF0.4062
aF0.5
aF0.2344
aF0.5469
aF0.5156
aF0.1719
aF0.4062
aF0.5625
aF0.2969
aF0.5312
aF0.5
aF0.3125
aF0.375
aF0.6094
aF0.25
aF0.3906
aF0.4844
aF0.1719
aF0.3906
aF0.5625
aF0.2969
aF0.4531
aF0.4688
asS'112.0'
p3
(lp4
F0.1562
aF0.1719
aF0.2031
aF0.1875
aF0.1875
aF0.2656
aF0.0781
aF0.1875
aF0.25
aF0.1562
aF0.2344
aF0.125
aF0.2344
aF0.0938
aF0.2656
aF0.1406
aF0.2188
aF0.1406
aF0.2812
aF0.1875
aF0.1719
aF0.3125
aF0.2188
aF0.2969
aF0.1719
aF0.0625
aF0.125
aF0.1875
aF0.0469
aF0.2188
aF0.2031
aF0.2031
aF0.1719
aF0.2812
aF0.1719
aF0.1094
aF0.1562
aF0.1875
aF0.1719
aF0.1406
aF0.1875
aF0.2031
aF0.1719
aF0.2031
aF0.1562
aF0.1562
aF0.1562
aF0.2031
aF0.1875
aF0.2188
aF0.1406
aF0.1094
aF0.1875
aF0.2188
aF0.2188
aF0.1406
aF0.1094
aF0.1875
aF0.3594
aF0.1875
aF0.1875
aF0.1875
aF0.1562
aF0.1562
aF0.1719
aF0.125
aF0.1094
aF0.2031
aF0.1875
aF0.2031
aF0.1875
aF0.1719
aF0.2656
aF0.1875
aF0.0938
aF0.2031
aF0.1719
aF0.1562
aF0.1875
aF0.1406
aF0.25
aF0.1875
aF0.1875
aF0.1719
aF0.2969
aF0.1719
aF0.25
aF0.1719
aF0.125
aF0.2344
aF0.0938
aF0.0938
aF0.2344
aF0.1406
aF0.2188
aF0.125
aF0.0781
aF0.1719
aF0.1875
aF0.1719
aF0.2344
aF0.125
aF0.1875
aF0.2344
aF0.2969
aF0.0938
aF0.1562
aF0.2656
aF0.2031
aF0.1094
aF0.125
aF0.1406
aF0.0938
aF0.125
aF0.2812
aF0.1719
aF0.2812
aF0.1875
aF0.1406
aF0.1562
aF0.2031
aF0.1094
aF0.1719
aF0.1875
aF0.1719
aF0.1719
aF0.1562
aF0.1562
aF0.1719
aF0.1406
aF0.2188
aF0.2188
aF0.125
aF0.1719
aF0.1719
aF0.1406
aF0.2031
aF0.1719
aF0.1562
aF0.1562
aF0.1875
aF0.2031
aF0.1406
aF0.1719
aF0.1406
aF0.1406
aF0.2656
aF0.1719
aF0.2656
aF0.1562
aF0.2031
aF0.2188
aF0.1875
aF0.1875
aF0.2812
aF0.2188
aF0.1094
aF0.2656
aF0.2031
aF0.1406
aF0.1875
aF0.1719
aF0.2812
aF0.1875
aF0.2031
aF0.2656
aF0.1562
aF0.2344
aF0.1875
aF0.2188
aF0.125
aF0.2031
aF0.25
aF0.1406
aF0.1719
aF0.1562
aF0.1719
aF0.2031
aF0.1875
aF0.0781
aF0.2969
aF0.25
aF0.3281
aF0.2812
aF0.2031
aF0.2344
aF0.25
aF0.1719
aF0.125
aF0.1094
aF0.2344
aF0.2188
aF0.2344
aF0.0938
aF0.1719
aF0.1562
aF0.1094
aF0.25
aF0.0938
aF0.1875
aF0.2344
aF0.2344
aF0.3438
aF0.1719
aF0.2344
aF0.1562
aF0.125
aF0.1719
aF0.2188
aF0.0781
aF0.0781
aF0.125
aF0.25
aF0.0938
aF0.1875
aF0.1406
aF0.1875
aF0.125
aF0.1562
aF0.1719
aF0.1406
aF0.2344
aF0.2344
aF0.1719
aF0.1406
aF0.1094
aF0.1406
aF0.1875
aF0.0781
aF0.1094
aF0.2188
aF0.1562
aF0.2031
aF0.0938
aF0.125
aF0.125
aF0.125
aF0.1406
aF0.2031
aF0.1094
aF0.125
aF0.1719
aF0.1406
aF0.1875
aF0.125
aF0.1875
aF0.1562
aF0.2031
aF0.1719
aF0.2031
asS'140.0'
p5
(lp6
F0.3281
aF0.4531
aF0.2344
aF0.5
aF0.2031
aF0.4531
aF0.2969
aF0.5469
aF0.1719
aF0.5625
aF0.2188
aF0.4531
aF0.25
aF0.5156
aF0.2344
aF0.4531
aF0.125
aF0.4219
aF0.2188
aF0.625
aF0.2188
aF0.4375
aF0.2344
aF0.5312
aF0.2812
aF0.5
aF0.2344
aF0.5781
aF0.1562
aF0.4375
aF0.2188
aF0.5469
aF0.1562
aF0.5156
aF0.2031
aF0.5312
aF0.1719
aF0.4844
aF0.25
aF0.4062
aF0.2344
aF0.4844
aF0.25
aF0.375
aF0.2188
aF0.4531
aF0.1719
aF0.3281
aF0.25
aF0.5156
aF0.2188
aF0.5469
aF0.1562
aF0.4219
aF0.1719
aF0.4062
aF0.1875
aF0.5
aF0.1719
aF0.4375
aF0.2188
aF0.5469
aF0.2031
aF0.5156
aF0.1719
aF0.3125
aF0.2344
aF0.4219
aF0.2656
aF0.4844
aF0.2031
aF0.5938
aF0.3125
aF0.4219
aF0.2031
aF0.5
aF0.1719
aF0.4844
aF0.1562
aF0.4531
aF0.2188
aF0.5312
aF0.2188
aF0.5
aF0.2344
aF0.5312
aF0.1719
aF0.4062
aF0.1406
aF0.4219
aF0.2188
aF0.4531
aF0.2344
aF0.4062
aF0.2656
aF0.4844
aF0.1562
aF0.4531
aF0.1406
aF0.5
aF0.2656
aF0.4844
aF0.25
aF0.4062
aF0.2188
aF0.4375
aF0.25
aF0.5156
aF0.1562
aF0.5625
aF0.125
aF0.3594
aF0.3281
aF0.4219
aF0.2344
aF0.4688
aF0.1562
aF0.5156
aF0.1875
aF0.5781
aF0.2188
aF0.6094
aF0.2188
aF0.5156
aF0.2656
aF0.5
aF0.2344
aF0.4219
aF0.1719
aF0.4688
aF0.2812
aF0.4531
aF0.2344
aF0.4531
aF0.25
aF0.4531
aF0.2188
aF0.4844
aF0.1875
aF0.4688
aF0.2188
aF0.4688
aF0.2031
aF0.4844
aF0.2344
aF0.5156
aF0.2344
aF0.5312
aF0.1875
aF0.5
aF0.1875
aF0.4844
aF0.2656
aF0.4375
aF0.2969
aF0.5469
aF0.1719
aF0.4062
aF0.1562
aF0.5625
aF0.2344
aF0.3281
aF0.1562
aF0.5469
aF0.1875
aF0.4375
aF0.25
aF0.4688
aF0.1719
aF0.5
aF0.2969
aF0.4219
aF0.3125
aF0.5156
aF0.25
aF0.4375
aF0.1406
aF0.5312
aF0.1562
aF0.4844
aF0.2188
aF0.5156
aF0.2812
aF0.4375
aF0.2188
aF0.4844
aF0.25
aF0.4375
aF0.1875
aF0.4375
aF0.2188
aF0.5156
aF0.2031
aF0.4375
aF0.25
aF0.5781
aF0.1875
aF0.5
aF0.1719
aF0.5469
aF0.2344
aF0.4844
aF0.2031
aF0.4219
aF0.1719
aF0.375
aF0.2188
aF0.4531
aF0.0625
aF0.4531
aF0.2188
aF0.5156
aF0.1562
aF0.4531
aF0.25
aF0.4688
aF0.1719
aF0.4844
aF0.1875
aF0.4844
aF0.2812
aF0.4844
aF0.2656
aF0.4062
aF0.2969
aF0.4531
aF0.2656
aF0.4219
aF0.2969
aF0.5625
aF0.2344
aF0.4219
aF0.2188
aF0.4219
aF0.2812
aF0.4844
aF0.1875
aF0.4844
aF0.2969
aF0.4531
aF0.25
aF0.4219
aF0.2031
aF0.4219
aF0.1562
aF0.4688
aF0.25
aF0.4531
aF0.3281
aF0.5156
aF0.2656
aF0.4219
aF0.1562
aF0.5
aF0.1719
aF0.5
aF0.25
aF0.5156
aF0.1562
aF0.4375
aF0.2812
aF0.5469
aF0.2188
aF0.4219
aF0.2031
aF0.3906
aF0.1719
aF0.4844
aF0.25
aF0.5469
aF0.1875
aF0.4062
aF0.2188
aF0.4375
aF0.1719
aF0.4219
aF0.2344
aF0.4531
aF0.1562
aF0.4062
aF0.1875
aF0.5625
aF0.25
aF0.5
aF0.1719
aF0.4531
aF0.1562
aF0.5156
aF0.1875
aF0.5156
aF0.25
aF0.5312
aF0.3125
aF0.4062
aF0.2812
aF0.4531
aF0.2031
aF0.4219
aF0.1406
aF0.4219
aF0.2656
aF0.3906
aF0.1406
aF0.5
aF0.2344
aF0.4531
aF0.2969
aF0.4219
aF0.2344
aF0.4219
aF0.2188
aF0.4688
aF0.2188
aF0.5
aF0.2656
aF0.4844
aF0.25
aF0.5312
aF0.2031
aF0.4531
aF0.2031
aF0.4844
aF0.2969
aF0.3906
aF0.1719
aF0.5625
aF0.1875
aF0.4375
aF0.2031
aF0.4844
aF0.2656
aF0.375
aF0.2031
aF0.5156
aF0.2031
aF0.3594
aF0.2031
aF0.4688
aF0.1719
aF0.5156
aF0.2188
aF0.3438
aF0.3281
aF0.4688
aF0.2031
aF0.4844
aF0.1875
aF0.4688
aF0.2969
aF0.5156
aF0.2031
aF0.4219
aF0.2031
aF0.5
aF0.1875
aF0.5
aF0.1406
aF0.5469
aF0.1719
aF0.4844
aF0.1875
aF0.4219
aF0.2188
aF0.4375
aF0.25
aF0.5469
aF0.2344
aF0.4844
aF0.2188
aF0.5
aF0.1562
aF0.4844
aF0.2188
aF0.5156
aF0.2344
aF0.5
aF0.2031
aF0.4375
aF0.2188
aF0.4375
aF0.2031
aF0.4531
aF0.1719
aF0.3906
aF0.25
aF0.5
aF0.25
aF0.5
aF0.2031
aF0.4375
aF0.1094
aF0.5156
aF0.2031
aF0.4219
aF0.1719
aF0.5469
aF0.1719
aF0.4688
aF0.2188
aF0.5
aF0.1562
aF0.5
aF0.3281
aF0.4375
aF0.375
aF0.4688
aF0.1719
aF0.5156
aF0.1875
aF0.4062
aF0.25
aF0.4531
aF0.1719
aF0.5
aF0.1094
aF0.4531
aF0.25
aF0.5
aF0.2188
aF0.4375
aF0.1875
aF0.5156
aF0.3125
aF0.3594
aF0.2188
aF0.4375
aF0.1875
aF0.3906
aF0.2188
aF0.4688
aF0.1562
aF0.5312
aF0.1719
aF0.5312
aF0.2188
aF0.4219
aF0.1406
aF0.4844
aF0.2031
aF0.4219
aF0.2031
aF0.4375
aF0.2188
aF0.4688
aF0.2344
aF0.4844
aF0.1875
aF0.4844
aF0.3281
aF0.5
aF0.2188
aF0.4688
aF0.2031
aF0.5469
aF0.2344
aF0.4688
aF0.2812
aF0.4844
aF0.1875
aF0.4375
aF0.25
aF0.5469
aF0.3125
aF0.4375
aF0.2656
aF0.5469
aF0.25
aF0.5469
aF0.2188
aF0.4688
aF0.2344
aF0.4219
aF0.1719
aF0.5156
aF0.2031
aF0.4531
aF0.2969
aF0.5156
aF0.2344
aF0.4688
aF0.1875
aF0.4688
aF0.1719
aF0.5
aF0.125
aF0.5
aF0.2031
aF0.4844
aF0.1875
aF0.4688
aF0.2188
aF0.4219
aF0.2812
aF0.4375
aF0.2188
aF0.5
aF0.125
aF0.4219
aF0.2344
aF0.4375
asS'66.5'
p7
(lp8
F0.0938
aF0.1094
aF0.125
aF0.0938
aF0.0938
aF0.0938
aF0.0781
aF0.0781
aF0.0938
aF0.0781
aF0.0938
aF0.125
aF0.125
aF0.0781
aF0.125
aF0.1719
aF0.0938
aF0.125
aF0.0938
aF0.1094
aF0.0625
aF0.0781
aF0.0156
aF0.1094
aF0.0938
aF0.0469
aF0.1094
aF0.125
aF0.0938
aF0.0625
aF0.1094
aF0.1094
aF0.0469
aF0.0781
aF0.0938
aF0.0938
aF0.0781
aF0.1094
aF0.1562
aF0.0938
aF0.0312
aF0.0625
aF0.0938
aF0.125
aF0.0469
aF0.0938
aF0.0625
aF0.0469
aF0.0312
aF0.0938
aF0.1562
aF0.0781
aF0.0938
aF0.0625
aF0.0781
aF0.1562
aF0.0156
aF0.0781
aF0.125
aF0.125
aF0.0625
aF0.0156
aF0.125
aF0.1094
aF0.1094
aF0.0781
aF0.0938
aF0.1719
aF0.0781
aF0.0469
aF0.0156
aF0.0156
aF0.0625
aF0.1094
aF0.0938
aF0.125
aF0.0625
aF0.0625
aF0.1094
aF0.0625
aF0.0469
aF0.0938
aF0.1562
aF0.0938
aF0.0156
aF0.1406
aF0.0312
aF0.0625
aF0.0938
aF0.0781
aF0.1094
aF0.0938
aF0.0625
aF0.0938
aF0.1094
aF0.0938
aF0.0938
aF0.0938
aF0.1094
aF0.125
aF0.1094
aF0.0625
aF0.0938
aF0.1406
aF0.0312
aF0.1719
aF0.0938
aF0.125
aF0.0781
aF0.1094
aF0.0938
aF0.125
aF0.0938
aF0.0625
aF0.1094
aF0.0938
aF0.0781
aF0.0625
aF0.0625
aF0.0625
aF0.1719
aF0.1094
aF0.0938
aF0.0938
aF0.1094
aF0.125
aF0.0938
aF0.0625
aF0.1406
aF0.1094
aF0.1094
aF0.0469
aF0.1406
aF0.0938
aF0.0469
aF0.0625
aF0.0
aF0.0938
aF0.0781
aF0.1094
aF0.0625
aF0.0625
aF0.0781
aF0.0938
aF0.0781
aF0.1094
aF0.0938
aF0.0938
aF0.0312
aF0.1094
aF0.0938
aF0.1094
aF0.0625
aF0.0156
aF0.0625
aF0.0781
aF0.0938
aF0.1094
aF0.0781
aF0.0781
aF0.0312
aF0.0938
aF0.1094
aF0.125
aF0.125
aF0.0469
aF0.0938
aF0.0625
aF0.0469
aF0.1094
aF0.0938
aF0.0938
aF0.125
aF0.1094
aF0.0938
aF0.1094
aF0.0938
aF0.0781
aF0.0938
aF0.125
aF0.0781
aF0.0938
aF0.0312
aF0.1094
aF0.125
aF0.0781
aF0.0469
aF0.0938
aF0.0312
aF0.0
aF0.1094
aF0.0781
aF0.0938
aF0.0938
aF0.0938
aF0.0938
aF0.0938
aF0.0469
aF0.0781
aF0.125
aF0.1094
aF0.0938
aF0.0938
aF0.0781
aF0.0625
aF0.1094
aF0.1094
aF0.0781
aF0.125
aF0.1094
aF0.0781
aF0.0781
aF0.1094
aF0.0312
aF0.0938
aF0.125
aF0.0938
aF0.0625
aF0.0469
aF0.0781
aF0.0938
aF0.1094
aF0.0938
aF0.0938
aF0.0938
aF0.0938
aF0.0938
aF0.1094
aF0.125
aF0.0938
aF0.1094
aF0.0938
aF0.0781
aF0.1094
aF0.0938
aF0.0781
aF0.125
aF0.0312
aF0.0938
aF0.0781
aF0.0781
aF0.1094
aF0.0625
aF0.125
aF0.0938
aF0.1094
aF0.1094
aF0.125
aF0.1094
aF0.0938
asS'52.5'
p9
(lp10
F0.0312
aF0.0312
aF0.0312
aF0.0469
aF0.0312
aF0.0156
aF0.0156
aF0.0312
aF0.1094
aF0.0781
aF0.0156
aF0.0312
aF0.0312
aF0.0469
aF0.0469
aF0.0312
aF0.0625
aF0.0312
aF0.0469
aF0.0156
aF0.0156
aF0.0312
aF0.0156
aF0.0469
aF0.0312
aF0.0312
aF0.0625
aF0.0469
aF0.0469
aF0.0469
aF0.0469
aF0.0312
aF0.0156
aF0.0625
aF0.0469
aF0.0625
aF0.0469
aF0.0469
aF0.0469
aF0.0156
aF0.0469
aF0.0312
aF0.0469
aF0.0625
aF0.0625
aF0.0312
aF0.0312
aF0.0312
aF0.0469
aF0.0312
aF0.0469
aF0.0625
aF0.0156
aF0.0469
aF0.0469
aF0.0312
aF0.0312
aF0.0156
aF0.0469
aF0.0312
aF0.0312
aF0.0469
aF0.0
aF0.0469
aF0.0781
aF0.0156
aF0.0156
aF0.0938
aF0.0625
aF0.0625
aF0.0156
aF0.0312
aF0.0625
aF0.0156
aF0.0156
aF0.0156
aF0.0469
aF0.0469
aF0.0312
aF0.0625
aF0.0156
aF0.0469
aF0.0156
aF0.0312
aF0.0469
aF0.0469
aF0.0312
aF0.0469
aF0.0469
aF0.0312
aF0.0156
aF0.0469
aF0.0469
aF0.0625
aF0.0312
aF0.0469
aF0.0469
aF0.0312
aF0.0312
aF0.0312
aF0.0469
aF0.0469
aF0.0156
aF0.0312
aF0.0156
aF0.0625
aF0.0156
aF0.0469
aF0.0625
aF0.0625
aF0.0469
aF0.0
aF0.0469
aF0.0625
aF0.0312
aF0.0469
aF0.0312
aF0.0469
aF0.0469
aF0.0312
aF0.0469
aF0.0312
aF0.0312
aF0.0625
aF0.0469
aF0.0156
aF0.0469
aF0.0
aF0.0156
aF0.0625
aF0.0156
aF0.0156
aF0.0625
aF0.0
aF0.0156
aF0.0312
aF0.0781
aF0.0156
aF0.0625
aF0.0312
aF0.0625
aF0.0312
aF0.0312
aF0.0156
aF0.0625
aF0.0312
aF0.0625
aF0.0312
aF0.0156
aF0.0156
aF0.0469
aF0.0156
aF0.0312
aF0.0312
aF0.0312
aF0.0312
aF0.0156
aF0.0469
aF0.0312
aF0.0469
aF0.0312
aF0.0312
aF0.0469
aF0.0156
aF0.0312
aF0.0469
aF0.0469
aF0.0312
aF0.0312
aF0.0469
aF0.0469
aF0.0312
aF0.0469
aF0.0469
aF0.0312
aF0.0312
aF0.0469
aF0.0312
aF0.0469
aF0.0312
aF0.0781
aF0.0156
aF0.0469
aF0.0469
aF0.0156
aF0.0156
aF0.0469
aF0.0469
aF0.0469
aF0.0469
aF0.0625
aF0.0625
aF0.0312
aF0.0938
aF0.0156
aF0.0312
aF0.0156
aF0.0312
aF0.0625
aF0.0156
aF0.0156
aF0.0312
aF0.0625
aF0.0312
aF0.0
aF0.0469
aF0.0312
aF0.0781
aF0.0469
aF0.0312
aF0.0469
aF0.0312
aF0.0625
aF0.0156
aF0.0312
aF0.0625
aF0.0781
aF0.0469
aF0.0156
aF0.0312
aF0.0625
aF0.0469
aF0.0469
aF0.0781
aF0.0781
aF0.0156
aF0.0625
aF0.0469
aF0.0312
aF0.0625
aF0.0312
aF0.0312
aF0.0469
aF0.0469
aF0.0312
aF0.0469
aF0.0312
aF0.0469
aF0.0469
aF0.0625
aF0.0469
aF0.0312
aF0.0625
aF0.0625
aF0.0469
aF0.0312
aF0.0469
aF0.0625
aF0.0312
aF0.0312
asS'56.0'
p11
(lp12
F0.0781
aF0.0625
aF0.0469
aF0.0781
aF0.0469
aF0.0312
aF0.0469
aF0.0156
aF0.0156
aF0.0312
aF0.0312
aF0.0156
aF0.0625
aF0.0469
aF0.0312
aF0.0
aF0.0312
aF0.0156
aF0.0
aF0.0156
aF0.0625
aF0.0469
aF0.0625
aF0.0469
aF0.0156
aF0.0469
aF0.0312
aF0.0469
aF0.0625
aF0.0156
aF0.0469
aF0.0469
aF0.0469
aF0.0156
aF0.0312
aF0.0625
aF0.0469
aF0.0469
aF0.0781
aF0.0781
aF0.0781
aF0.0469
aF0.0625
aF0.0
aF0.0312
aF0.0625
aF0.0781
aF0.0625
aF0.0312
aF0.0156
aF0.0469
aF0.0469
aF0.0469
aF0.0625
aF0.0469
aF0.0312
aF0.0625
aF0.0938
aF0.0312
aF0.0938
aF0.0312
aF0.0781
aF0.0781
aF0.0781
aF0.0625
aF0.0625
aF0.0469
aF0.0469
aF0.0781
aF0.0469
aF0.0312
aF0.0625
aF0.0312
aF0.0469
aF0.0
aF0.0625
aF0.0469
aF0.0469
aF0.0625
aF0.0625
aF0.0781
aF0.0625
aF0.0469
aF0.0469
aF0.0469
aF0.0
aF0.0625
aF0.0469
aF0.0781
aF0.0469
aF0.0469
aF0.0938
aF0.0156
aF0.0625
aF0.0469
aF0.0625
aF0.0469
aF0.0156
aF0.0312
aF0.0312
aF0.0469
aF0.0156
aF0.0625
aF0.0625
aF0.0312
aF0.0469
aF0.0469
aF0.0469
aF0.0625
aF0.0469
aF0.0469
aF0.0156
aF0.0625
aF0.0469
aF0.0625
aF0.0156
aF0.0625
aF0.0312
aF0.0156
aF0.0469
aF0.0469
aF0.0312
aF0.0625
aF0.0469
aF0.0312
aF0.0469
aF0.0625
aF0.0469
aF0.0312
aF0.0625
aF0.0469
aF0.0312
aF0.0469
aF0.0781
aF0.0156
aF0.0156
aF0.0469
aF0.0156
aF0.0156
aF0.0312
aF0.0312
aF0.0469
aF0.0312
aF0.0
aF0.0469
aF0.0469
aF0.0312
aF0.0625
aF0.0781
aF0.0625
aF0.0312
aF0.0625
aF0.0469
aF0.0469
aF0.0625
aF0.0781
aF0.0
aF0.0625
aF0.0312
aF0.0781
aF0.0469
aF0.0625
aF0.0469
aF0.0156
aF0.0156
aF0.0625
aF0.0312
aF0.0625
aF0.0469
aF0.0312
aF0.0312
aF0.0469
aF0.0469
aF0.0625
aF0.0156
aF0.0156
aF0.0312
aF0.0781
aF0.0781
aF0.0781
aF0.0312
aF0.0156
aF0.0625
aF0.0469
aF0.0469
aF0.0469
aF0.0312
aF0.0312
aF0.0312
aF0.0781
aF0.0312
aF0.0469
aF0.0469
aF0.0312
aF0.0469
aF0.0312
aF0.0312
aF0.0469
aF0.0469
aF0.0156
aF0.0625
aF0.0469
aF0.0469
aF0.0625
aF0.0312
aF0.0625
aF0.0469
aF0.0781
aF0.0469
aF0.0469
aF0.0312
aF0.0781
aF0.0312
aF0.0781
aF0.0156
aF0.0312
aF0.0156
aF0.0625
aF0.0469
aF0.0625
aF0.0625
aF0.0625
aF0.0469
aF0.0156
aF0.0469
aF0.0625
aF0.0469
aF0.0469
aF0.0625
aF0.0469
aF0.0625
aF0.0312
aF0.0469
aF0.0469
aF0.0312
aF0.0469
aF0.0625
aF0.0469
aF0.0156
aF0.0625
aF0.0625
aF0.0625
aF0.0156
aF0.0469
aF0.0625
aF0.0312
aF0.0469
aF0.0625
aF0.0469
aF0.0312
asS'147.0'
p13
(lp14
F0.2344
aF0.5625
aF0.25
aF0.5938
aF0.375
aF0.5312
aF0.2812
aF0.4531
aF0.3438
aF0.5625
aF0.25
aF0.5312
aF0.3281
aF0.375
aF0.375
aF0.4375
aF0.3125
aF0.4375
aF0.3125
aF0.5
aF0.2656
aF0.5
aF0.2969
aF0.5156
aF0.3438
aF0.4219
aF0.2188
aF0.4375
aF0.25
aF0.5938
aF0.25
aF0.5781
aF0.25
aF0.4688
aF0.2969
aF0.5625
aF0.2344
aF0.5625
aF0.2969
aF0.4688
aF0.2344
aF0.5312
aF0.3281
aF0.5312
aF0.2656
aF0.4844
aF0.1719
aF0.4375
aF0.375
aF0.5625
aF0.2812
aF0.4688
aF0.2969
aF0.4531
aF0.3125
aF0.4219
aF0.2812
aF0.4844
aF0.2344
aF0.6094
aF0.2969
aF0.5469
aF0.2188
aF0.5156
aF0.3906
aF0.5
aF0.2812
aF0.4375
aF0.3125
aF0.5781
aF0.2969
aF0.4844
aF0.2969
aF0.5469
aF0.3125
aF0.4688
aF0.375
aF0.5625
aF0.2344
aF0.4219
aF0.2656
aF0.5625
aF0.3281
aF0.5625
aF0.3125
aF0.4062
aF0.25
aF0.5
aF0.3281
aF0.4219
aF0.2969
aF0.4531
aF0.2656
aF0.4688
aF0.2188
aF0.375
aF0.2812
aF0.5
aF0.2188
aF0.5781
aF0.2812
aF0.5156
aF0.2656
aF0.4531
aF0.2812
aF0.4531
aF0.2344
aF0.4375
aF0.3438
aF0.4844
aF0.25
aF0.5469
aF0.25
aF0.5469
aF0.2344
aF0.5312
aF0.3438
aF0.4688
aF0.3594
aF0.5938
aF0.2969
aF0.5781
aF0.2812
aF0.5156
aF0.3281
aF0.5312
aF0.3281
aF0.5312
aF0.25
aF0.5
aF0.3125
aF0.5
aF0.3594
aF0.6406
aF0.2344
aF0.5312
aF0.4375
aF0.4531
aF0.375
aF0.4531
aF0.3594
aF0.5
aF0.25
aF0.5312
aF0.3594
aF0.5312
aF0.3594
aF0.5
aF0.2656
aF0.4844
aF0.2812
aF0.4688
aF0.2344
aF0.5781
aF0.2344
aF0.6719
aF0.3281
aF0.5625
aF0.2188
aF0.5
aF0.2031
aF0.5156
aF0.4062
aF0.5312
aF0.3438
aF0.4062
aF0.2031
aF0.5625
aF0.2656
aF0.4844
aF0.3438
aF0.5781
aF0.25
aF0.4531
aF0.2031
aF0.5
aF0.3281
aF0.5625
aF0.3594
aF0.5625
aF0.2812
aF0.4531
aF0.3281
aF0.4844
aF0.3125
aF0.6562
aF0.2812
aF0.5312
aF0.2969
aF0.3906
aF0.3438
aF0.4219
aF0.25
aF0.4531
aF0.25
aF0.5156
aF0.2344
aF0.5938
aF0.3125
aF0.5469
aF0.3125
aF0.5156
aF0.4062
aF0.5
aF0.2656
aF0.6875
aF0.3125
aF0.625
aF0.3125
aF0.5625
aF0.2656
aF0.5
aF0.2969
aF0.5
aF0.3438
aF0.4688
aF0.2656
aF0.5625
aF0.3438
aF0.4219
aF0.3906
aF0.5
aF0.2344
aF0.4844
aF0.2969
aF0.5469
aF0.2812
aF0.5781
aF0.3281
aF0.5469
aF0.3281
aF0.5156
aF0.3125
aF0.5938
aF0.3281
aF0.5469
aF0.4219
aF0.5312
aF0.2188
aF0.5469
aF0.2344
aF0.5156
aF0.3125
aF0.5156
aF0.2656
aF0.5312
aF0.2812
aF0.6406
aF0.375
aF0.4531
aF0.3438
aF0.5
aF0.25
aF0.5
aF0.25
aF0.4375
aF0.3906
aF0.4375
aF0.3281
aF0.5312
aF0.3906
aF0.5
aF0.3594
aF0.5
aF0.4844
aF0.5469
aF0.3438
aF0.5156
aF0.2656
aF0.5938
aF0.2031
aF0.4531
aF0.2812
aF0.5
aF0.2031
aF0.5
aF0.25
aF0.4531
aF0.2656
aF0.6406
aF0.2812
aF0.4844
aF0.3125
aF0.5469
aF0.2344
aF0.4844
aF0.2969
aF0.5469
aF0.2969
aF0.5625
aF0.2812
aF0.5781
aF0.3125
aF0.5625
aF0.2656
aF0.4844
aF0.2188
aF0.4688
aF0.3438
aF0.3906
aF0.3594
aF0.5625
aF0.2969
aF0.625
aF0.25
aF0.5
aF0.3906
aF0.4375
aF0.2969
aF0.4375
aF0.2656
aF0.5312
aF0.25
aF0.4375
aF0.2656
aF0.5469
aF0.25
aF0.4375
aF0.4219
aF0.4844
aF0.3594
aF0.4531
aF0.2188
aF0.5
aF0.2812
aF0.4844
aF0.3594
aF0.4375
aF0.5
aF0.5312
aF0.3438
aF0.5312
aF0.3438
aF0.5781
aF0.3906
aF0.5
aF0.2656
aF0.4844
aF0.2969
aF0.4375
aF0.25
aF0.375
aF0.2812
aF0.5938
aF0.2656
aF0.4688
aF0.3281
aF0.5
aF0.2969
aF0.4375
aF0.1719
aF0.5312
aF0.4219
aF0.5625
aF0.3438
aF0.4688
aF0.2656
aF0.5781
aF0.3281
aF0.4688
aF0.3125
aF0.4375
aF0.2969
aF0.5312
aF0.25
aF0.5156
aF0.3438
aF0.5312
aF0.2188
aF0.5
aF0.2812
aF0.4531
aF0.1875
aF0.5469
aF0.2812
aF0.5625
aF0.375
aF0.4219
aF0.3438
aF0.5
aF0.2812
aF0.4062
aF0.25
aF0.5469
aF0.3125
aF0.5781
aF0.2969
aF0.4844
aF0.5
aF0.5469
aF0.1562
aF0.5625
aF0.2969
aF0.4375
aF0.2812
aF0.5938
aF0.2656
aF0.5156
aF0.3438
aF0.5156
aF0.2812
aF0.5938
aF0.4219
aF0.4844
aF0.2969
aF0.4375
aF0.3281
aF0.4375
aF0.25
aF0.4688
aF0.375
aF0.5
aF0.2812
aF0.4531
aF0.3125
aF0.4375
aF0.3281
aF0.5469
aF0.25
aF0.5
aF0.2344
aF0.5
aF0.3125
aF0.5
aF0.2656
aF0.4062
aF0.2656
aF0.5
aF0.3438
aF0.4531
aF0.2812
aF0.5781
aF0.4219
aF0.5
aF0.3125
aF0.5625
aF0.2969
aF0.4844
aF0.2344
aF0.4688
aF0.25
aF0.5156
aF0.375
aF0.4375
aF0.3438
aF0.5469
aF0.25
aF0.3906
aF0.2656
aF0.5
aF0.3125
aF0.5625
aF0.2656
aF0.5
aF0.3438
aF0.4844
aF0.4375
aF0.5312
aF0.375
aF0.5
aF0.2969
aF0.5312
aF0.3906
aF0.5
aF0.3438
aF0.4219
aF0.1875
aF0.5156
aF0.2969
aF0.5
aF0.2812
aF0.4531
aF0.2969
aF0.5312
aF0.3906
aF0.5156
aF0.2188
aF0.5469
aF0.3438
aF0.625
aF0.3438
aF0.4531
aF0.2812
aF0.4688
aF0.375
aF0.4062
aF0.4375
aF0.5156
aF0.2656
aF0.4688
aF0.2969
aF0.4219
aF0.3906
aF0.4844
aF0.2969
aF0.4844
aF0.2188
aF0.3906
aF0.2031
aF0.4375
asS'28.0'
p15
(lp16
F0.0312
aF0.0312
aF0.0312
aF0.0156
aF0.0
aF0.0
aF0.0469
aF0.0
aF0.0
aF0.0
aF0.0
aF0.0312
aF0.0
aF0.0
aF0.0312
aF0.0
aF0.0312
aF0.0312
aF0.0156
aF0.0156
aF0.0156
aF0.0312
aF0.0
aF0.0156
aF0.0781
aF0.0
aF0.0156
aF0.0312
aF0.0156
aF0.0156
aF0.0156
aF0.0312
aF0.0312
aF0.0156
aF0.0
aF0.0156
aF0.0156
aF0.0312
aF0.0156
aF0.0156
aF0.0156
aF0.0
aF0.0156
aF0.0312
aF0.0
aF0.0156
aF0.0156
aF0.0312
aF0.0156
aF0.0312
aF0.0
aF0.0
aF0.0
aF0.0156
aF0.0312
aF0.0312
aF0.0
aF0.0156
aF0.0
aF0.0
aF0.0312
aF0.0625
aF0.0
aF0.0156
aF0.0312
aF0.0156
aF0.0312
aF0.0156
aF0.0156
aF0.0156
aF0.0
aF0.0156
aF0.0
aF0.0312
aF0.0156
aF0.0156
aF0.0312
aF0.0312
aF0.0312
aF0.0156
aF0.0156
aF0.0156
aF0.0156
aF0.0
aF0.0156
aF0.0
aF0.0312
aF0.0312
aF0.0156
aF0.0156
aF0.25
aF0.0156
aF0.0469
aF0.0
aF0.0156
aF0.0312
aF0.0
aF0.0625
aF0.0312
aF0.0156
aF0.0312
aF0.0
aF0.0156
aF0.0156
aF0.0312
aF0.0156
aF0.0156
aF0.0312
aF0.0312
aF0.0312
aF0.0312
aF0.0
aF0.0312
aF0.0156
aF0.0156
aF0.0156
aF0.0156
aF0.0156
aF0.0312
aF0.0156
aF0.0312
aF0.0156
aF0.0156
aF0.0156
aF0.0312
aF0.0312
aF0.0156
aF0.0312
aF0.0312
aF0.0
aF0.0156
aF0.0
aF0.0
aF0.0156
aF0.0156
aF0.0312
aF0.0312
aF0.0312
aF0.0156
aF0.0312
aF0.0156
aF0.0156
aF0.0156
aF0.0312
aF0.0156
aF0.0156
aF0.0156
aF0.0156
aF0.0156
aF0.0156
aF0.0156
aF0.0
aF0.1562
aF0.0156
aF0.0312
aF0.0156
aF0.0
aF0.0156
aF0.0312
aF0.0312
aF0.0156
aF0.0
aF0.0156
aF0.0156
aF0.0156
aF0.0156
aF0.0156
aF0.0156
aF0.0156
aF0.0
aF0.0156
aF0.0312
aF0.0156
aF0.0156
aF0.0156
aF0.0156
aF0.0312
aF0.0312
aF0.0
aF0.0156
aF0.0312
aF0.0312
aF0.0312
aF0.0312
aF0.0156
aF0.0312
aF0.0156
aF0.0312
aF0.0156
aF0.0
aF0.0
aF0.0312
aF0.0312
aF0.0312
aF0.0312
aF0.0312
aF0.0156
aF0.0312
aF0.0156
aF0.0156
aF0.0156
aF0.0156
aF0.0
aF0.0156
aF0.0156
aF0.0156
aF0.0156
aF0.0
aF0.0312
aF0.0
aF0.0156
aF0.0
aF0.0
aF0.0312
aF0.0156
aF0.0156
aF0.0156
aF0.0312
aF0.0156
aF0.0
aF0.0312
aF0.0
aF0.0156
aF0.0156
aF0.0156
aF0.0156
aF0.0312
aF0.0
aF0.0312
aF0.0156
aF0.0
aF0.0156
aF0.0
aF0.0156
aF0.0156
aF0.0312
aF0.0156
aF0.0156
aF0.0156
aF0.0156
aF0.0
aF0.0312
aF0.0156
aF0.0156
aF0.0156
aF0.0312
aF0.0156
aF0.0156
aF0.0156
aF0.0
asS'7.0'
p17
(lp18
F0.0
aF0.0
aF0.0
aF0.0
aF0.0
aF0.0
aF0.0
aF0.0
aF0.0
aF0.0
aF0.0
aF0.0
aF0.0
aF0.0
aF0.0
aF0.0
aF0.0
aF0.0
aF0.0
aF0.0
aF0.0
aF0.0
aF0.0
aF0.1094
aF0.0
aF0.0
aF0.0
aF0.0
aF0.0
aF0.0781
aF0.0
aF0.0
aF0.0
aF0.0
aF0.0
aF0.0
aF0.0
aF0.0
aF0.0
aF0.0
aF0.0
aF0.0
aF0.0
aF0.0
aF0.0
aF0.0
aF0.0
aF0.0
aF0.0
aF0.0
aF0.0
aF0.0
aF0.0
aF0.0
aF0.0
aF0.0
aF0.0
aF0.0
aF0.0
aF0.0
aF0.0
aF0.0
aF0.0
aF0.0
aF0.0
aF0.0
aF0.0
aF0.0
aF0.0
aF0.0
aF0.0
aF0.0
aF0.0
aF0.0
aF0.0
aF0.0
aF0.0
aF0.0
aF0.0
aF0.0
aF0.0
aF0.0312
aF0.0
aF0.0
aF0.0
aF0.0
aF0.0
aF0.0
aF0.0
aF0.0
aF0.0
aF0.0
aF0.0
aF0.0
aF0.0625
aF0.0
aF0.0
aF0.0
aF0.0
aF0.0
aF0.0
aF0.0
aF0.0
aF0.0
aF0.0
aF0.0
aF0.0
aF0.0
aF0.0
aF0.0
aF0.0
aF0.0
aF0.0
aF0.0
aF0.0
aF0.0
aF0.0
aF0.0
aF0.0
aF0.0
aF0.0
aF0.0
aF0.0
aF0.1562
aF0.0
aF0.0
aF0.0
aF0.0
aF0.0
aF0.0
aF0.0
aF0.0
aF0.0
aF0.0
aF0.0
aF0.0
aF0.0
aF0.0
aF0.0
aF0.0
aF0.0
aF0.0
aF0.0
aF0.0
aF0.0
aF0.0
aF0.0
aF0.0
aF0.0
aF0.0
aF0.0
aF0.0
aF0.0
aF0.0
aF0.0
aF0.0
aF0.0
aF0.0
aF0.0
aF0.0
aF0.0
aF0.0
aF0.0
aF0.0
aF0.0
aF0.0
aF0.0
aF0.0
aF0.0
aF0.0469
aF0.0
aF0.0
aF0.0
aF0.0
aF0.0
aF0.0
aF0.0
aF0.0469
aF0.0
aF0.0
aF0.0
aF0.0
aF0.0
aF0.0
aF0.0
aF0.0
aF0.0
aF0.0
aF0.0469
aF0.0
aF0.0
aF0.0
aF0.0
aF0.0
aF0.0
aF0.0
aF0.0
aF0.0
aF0.0
aF0.0
aF0.0
aF0.0
aF0.0
aF0.0
aF0.0
aF0.0
aF0.0
aF0.0
aF0.0
aF0.0
aF0.0
aF0.0
aF0.0
aF0.0
aF0.0
aF0.0
aF0.0
aF0.0
aF0.0
aF0.0
aF0.0
aF0.0156
aF0.0
aF0.0
aF0.0
aF0.0
aF0.0
aF0.0
aF0.0
aF0.0156
aF0.0
aF0.0
aF0.0312
aF0.0
aF0.0
aF0.0
aF0.0
aF0.0
aF0.0
aF0.0
aF0.0
aF0.0
aF0.0
aF0.0
aF0.0
aF0.0
aF0.0
aF0.0
aF0.0
aF0.0
asS'80.5'
p19
(lp20
F0.0781
aF0.1406
aF0.125
aF0.0781
aF0.0781
aF0.0625
aF0.0938
aF0.125
aF0.1406
aF0.0938
aF0.0938
aF0.0938
aF0.0625
aF0.1562
aF0.1094
aF0.1562
aF0.0469
aF0.1406
aF0.0781
aF0.0938
aF0.0781
aF0.1094
aF0.0469
aF0.0469
aF0.1406
aF0.1406
aF0.1562
aF0.1562
aF0.125
aF0.1875
aF0.1562
aF0.1562
aF0.1719
aF0.1406
aF0.1094
aF0.1562
aF0.125
aF0.0938
aF0.1406
aF0.0625
aF0.1562
aF0.1562
aF0.1094
aF0.125
aF0.0625
aF0.1094
aF0.125
aF0.1406
aF0.0625
aF0.0938
aF0.1406
aF0.0625
aF0.0625
aF0.0625
aF0.1094
aF0.1406
aF0.0469
aF0.0312
aF0.1406
aF0.0625
aF0.125
aF0.0312
aF0.0781
aF0.1406
aF0.1562
aF0.1719
aF0.1875
aF0.1406
aF0.0781
aF0.125
aF0.1094
aF0.1406
aF0.1406
aF0.0938
aF0.0469
aF0.1562
aF0.1719
aF0.1094
aF0.1562
aF0.0781
aF0.125
aF0.0781
aF0.1562
aF0.125
aF0.0781
aF0.1719
aF0.1406
aF0.0938
aF0.2031
aF0.125
aF0.1406
aF0.1406
aF0.0469
aF0.1719
aF0.125
aF0.1406
aF0.0469
aF0.1406
aF0.0938
aF0.0625
aF0.0781
aF0.1094
aF0.1406
aF0.0781
aF0.1094
aF0.125
aF0.0625
aF0.0312
aF0.1562
aF0.0781
aF0.0781
aF0.0781
aF0.1094
aF0.1562
aF0.1562
aF0.125
aF0.0156
aF0.0938
aF0.1094
aF0.1094
aF0.1719
aF0.1562
aF0.0938
aF0.0781
aF0.1562
aF0.1562
aF0.125
aF0.0781
aF0.0625
aF0.1094
aF0.0938
aF0.125
aF0.1406
aF0.1562
aF0.1094
aF0.0469
aF0.1562
aF0.0938
aF0.1719
aF0.1875
aF0.1719
aF0.1406
aF0.1562
aF0.1562
aF0.0781
aF0.1406
aF0.1406
aF0.125
aF0.125
aF0.0781
aF0.1094
aF0.2031
aF0.1094
aF0.1406
aF0.125
aF0.0781
aF0.0938
aF0.0625
aF0.0781
aF0.0312
aF0.1406
aF0.0
aF0.1406
aF0.125
aF0.125
aF0.1406
aF0.0625
aF0.1562
aF0.1406
aF0.2344
aF0.125
aF0.0469
aF0.1562
aF0.1719
aF0.0938
aF0.1406
aF0.0469
aF0.1406
aF0.0938
aF0.125
aF0.1406
aF0.1094
aF0.1562
aF0.0781
aF0.1562
aF0.1562
aF0.0469
aF0.1406
aF0.1094
aF0.125
aF0.1406
aF0.1406
aF0.1406
aF0.0938
aF0.0469
aF0.1094
aF0.1094
aF0.0938
aF0.1406
aF0.0156
aF0.0625
aF0.125
aF0.0625
aF0.0781
aF0.1406
aF0.125
aF0.0469
aF0.0781
aF0.1719
aF0.0781
aF0.0781
aF0.0938
aF0.1562
aF0.1406
aF0.1094
aF0.0781
aF0.1094
aF0.0938
aF0.125
aF0.1562
aF0.1406
aF0.1094
aF0.0781
aF0.1094
aF0.0312
aF0.1406
aF0.1562
aF0.1094
aF0.1719
aF0.0938
aF0.1094
aF0.1094
aF0.0938
aF0.0625
aF0.0938
aF0.1719
aF0.1562
aF0.0938
aF0.0938
aF0.0938
aF0.0625
aF0.0781
aF0.0781
aF0.1719
aF0.1406
aF0.0938
aF0.0312
aF0.125
aF0.0625
aF0.1562
asS'38.5'
p21
(lp22
F0.0156
aF0.0312
aF0.0156
aF0.0469
aF0.0312
aF0.0156
aF0.0312
aF0.0312
aF0.0469
aF0.0312
aF0.0312
aF0.0312
aF0.0469
aF0.0156
aF0.0
aF0.0312
aF0.0
aF0.0312
aF0.0312
aF0.0312
aF0.0312
aF0.0156
aF0.0312
aF0.0312
aF0.0156
aF0.0312
aF0.0469
aF0.0312
aF0.0312
aF0.0312
aF0.0312
aF0.0156
aF0.0312
aF0.0
aF0.0469
aF0.0312
aF0.0469
aF0.0156
aF0.0156
aF0.0156
aF0.0469
aF0.0312
aF0.0156
aF0.125
aF0.0156
aF0.0156
aF0.0469
aF0.0312
aF0.0312
aF0.0469
aF0.1406
aF0.0312
aF0.0312
aF0.0312
aF0.0312
aF0.0312
aF0.0469
aF0.0312
aF0.0156
aF0.0312
aF0.0156
aF0.0312
aF0.0156
aF0.0156
aF0.0
aF0.0156
aF0.0156
aF0.0156
aF0.0
aF0.0156
aF0.0469
aF0.0312
aF0.0312
aF0.0156
aF0.0156
aF0.0312
aF0.0312
aF0.0156
aF0.0469
aF0.0156
aF0.0156
aF0.0156
aF0.0312
aF0.0312
aF0.0312
aF0.0
aF0.0156
aF0.0312
aF0.0156
aF0.0312
aF0.0156
aF0.0312
aF0.0312
aF0.0156
aF0.0156
aF0.0312
aF0.0312
aF0.0156
aF0.0
aF0.0469
aF0.0156
aF0.0156
aF0.0312
aF0.0312
aF0.0
aF0.0312
aF0.0312
aF0.0469
aF0.0156
aF0.0156
aF0.0312
aF0.0156
aF0.0156
aF0.0312
aF0.0
aF0.0312
aF0.0156
aF0.0156
aF0.0312
aF0.0
aF0.0156
aF0.0156
aF0.0469
aF0.0312
aF0.0
aF0.0156
aF0.0312
aF0.0156
aF0.0469
aF0.0156
aF0.0156
aF0.0
aF0.0156
aF0.0
aF0.0312
aF0.0156
aF0.0312
aF0.0156
aF0.0
aF0.0156
aF0.0469
aF0.0156
aF0.0156
aF0.0156
aF0.0469
aF0.0312
aF0.0312
aF0.0
aF0.0312
aF0.0312
aF0.0312
aF0.0156
aF0.0156
aF0.0312
aF0.0156
aF0.0312
aF0.0
aF0.0312
aF0.0
aF0.0156
aF0.0156
aF0.0469
aF0.0312
aF0.0469
aF0.0312
aF0.0156
aF0.0312
aF0.0312
aF0.0156
aF0.0312
aF0.0156
aF0.0156
aF0.0156
aF0.0156
aF0.0312
aF0.0156
aF0.0156
aF0.0469
aF0.0312
aF0.0312
aF0.0156
aF0.0312
aF0.0156
aF0.0312
aF0.0312
aF0.0312
aF0.0312
aF0.0156
aF0.0312
aF0.0156
aF0.0
aF0.0312
aF0.0156
aF0.0312
aF0.0312
aF0.0312
aF0.0156
aF0.0156
aF0.0469
aF0.0312
aF0.0469
aF0.0
aF0.0156
aF0.0156
aF0.0156
aF0.0469
aF0.0312
aF0.0
aF0.0312
aF0.0156
aF0.0156
aF0.0312
aF0.0156
aF0.0
aF0.0156
aF0.0
aF0.0156
aF0.0156
aF0.0156
aF0.0312
aF0.0312
aF0.0156
aF0.0156
aF0.0312
aF0.0156
aF0.0469
aF0.0312
aF0.0469
aF0.0156
aF0.0312
aF0.0469
aF0.0312
aF0.0156
aF0.0312
aF0.0312
aF0.0469
aF0.0156
aF0.0
aF0.0312
aF0.0156
aF0.0312
aF0.0469
aF0.0156
aF0.0156
aF0.0156
aF0.0156
aF0.0312
aF0.0469
aF0.0156
aF0.0312
asS'105.0'
p23
(lp24
F0.1719
aF0.1562
aF0.1406
aF0.25
aF0.2031
aF0.2031
aF0.1562
aF0.2188
aF0.2031
aF0.25
aF0.2188
aF0.1562
aF0.1406
aF0.2344
aF0.3125
aF0.25
aF0.1562
aF0.125
aF0.1875
aF0.1875
aF0.1094
aF0.2031
aF0.1875
aF0.1562
aF0.1562
aF0.1875
aF0.125
aF0.2344
aF0.1719
aF0.2344
aF0.2656
aF0.1406
aF0.25
aF0.125
aF0.1562
aF0.2344
aF0.125
aF0.2031
aF0.1719
aF0.2812
aF0.25
aF0.1562
aF0.2031
aF0.1406
aF0.1094
aF0.2031
aF0.1875
aF0.1875
aF0.2344
aF0.125
aF0.1562
aF0.0938
aF0.2344
aF0.2188
aF0.1562
aF0.0781
aF0.1406
aF0.1719
aF0.1562
aF0.1406
aF0.0938
aF0.25
aF0.1719
aF0.1562
aF0.0938
aF0.1875
aF0.2031
aF0.1094
aF0.2188
aF0.1094
aF0.1562
aF0.25
aF0.0625
aF0.1562
aF0.1562
aF0.2031
aF0.2188
aF0.2031
aF0.2812
aF0.1719
aF0.1875
aF0.1406
aF0.2188
aF0.1562
aF0.125
aF0.1719
aF0.1406
aF0.1562
aF0.2344
aF0.1719
aF0.2656
aF0.25
aF0.1719
aF0.2188
aF0.2188
aF0.25
aF0.2031
aF0.1562
aF0.1719
aF0.1719
aF0.2188
aF0.1562
aF0.1562
aF0.2344
aF0.1562
aF0.1406
aF0.125
aF0.1719
aF0.2031
aF0.1562
aF0.125
aF0.125
aF0.1406
aF0.1562
aF0.1094
aF0.1094
aF0.2344
aF0.0781
aF0.25
aF0.2031
aF0.1406
aF0.1719
aF0.2344
aF0.1406
aF0.25
aF0.1875
aF0.1719
aF0.3125
aF0.2344
aF0.2031
aF0.1719
aF0.1406
aF0.1094
aF0.1719
aF0.1094
aF0.1875
aF0.1719
aF0.1562
aF0.1719
aF0.1406
aF0.2188
aF0.1875
aF0.125
aF0.2031
aF0.1875
aF0.125
aF0.2031
aF0.1719
aF0.1094
aF0.1719
aF0.1562
aF0.1562
aF0.1094
aF0.2188
aF0.2031
aF0.0938
aF0.0938
aF0.1875
aF0.1094
aF0.1875
aF0.1406
aF0.1875
aF0.1719
aF0.1406
aF0.2344
aF0.25
aF0.2188
aF0.1719
aF0.1406
aF0.1094
aF0.2031
aF0.1875
aF0.2188
aF0.1094
aF0.125
aF0.1719
aF0.0781
aF0.0469
aF0.1562
aF0.2188
aF0.125
aF0.1562
aF0.1094
aF0.1094
aF0.1719
aF0.1094
aF0.0625
aF0.2344
aF0.1406
aF0.0938
aF0.1562
aF0.1562
aF0.125
aF0.1094
aF0.1562
aF0.2188
aF0.1094
aF0.1406
aF0.2031
aF0.1562
aF0.1406
aF0.1406
aF0.1094
aF0.1562
aF0.125
aF0.0938
aF0.2188
aF0.1719
aF0.1406
aF0.2812
aF0.1719
aF0.1562
aF0.1562
aF0.1406
aF0.2344
aF0.1562
aF0.1562
aF0.25
aF0.0625
aF0.1719
aF0.2031
aF0.1094
aF0.1875
aF0.1562
aF0.125
aF0.25
aF0.1719
aF0.2031
aF0.2188
aF0.1562
aF0.1562
aF0.1562
aF0.2344
aF0.2656
aF0.2344
aF0.125
aF0.1719
aF0.1875
aF0.2656
aF0.1562
aF0.25
aF0.1406
aF0.1875
aF0.1406
aF0.2031
aF0.2031
aF0.1719
aF0.1406
aF0.2031
aF0.1406
asS'21.0'
p25
(lp26
F0.0156
aF0.0156
aF0.0625
aF0.0
aF0.0
aF0.0
aF0.0156
aF0.0156
aF0.0156
aF0.0
aF0.0
aF0.0156
aF0.0156
aF0.0
aF0.0
aF0.0156
aF0.0156
aF0.0
aF0.0156
aF0.0156
aF0.0156
aF0.0156
aF0.0156
aF0.0
aF0.0
aF0.0156
aF0.0156
aF0.0
aF0.0
aF0.0
aF0.0
aF0.0
aF0.0156
aF0.0
aF0.0156
aF0.0
aF0.0
aF0.0156
aF0.0156
aF0.0156
aF0.0156
aF0.0156
aF0.0
aF0.0156
aF0.0156
aF0.0156
aF0.0156
aF0.0156
aF0.0156
aF0.0
aF0.0
aF0.0938
aF0.0
aF0.0156
aF0.0156
aF0.0156
aF0.0
aF0.0156
aF0.0156
aF0.0156
aF0.0
aF0.0
aF0.0156
aF0.0
aF0.0
aF0.0
aF0.0
aF0.0
aF0.0156
aF0.125
aF0.0156
aF0.0
aF0.0156
aF0.0156
aF0.0
aF0.0156
aF0.0156
aF0.0
aF0.0
aF0.0
aF0.0312
aF0.0156
aF0.0156
aF0.0
aF0.0156
aF0.0156
aF0.0
aF0.0
aF0.0156
aF0.0
aF0.0156
aF0.0
aF0.0
aF0.0
aF0.0
aF0.0
aF0.0
aF0.0
aF0.0
aF0.0
aF0.0
aF0.0156
aF0.0
aF0.0156
aF0.0156
aF0.0
aF0.0
aF0.0
aF0.0156
aF0.0
aF0.0
aF0.0
aF0.0156
aF0.0156
aF0.0
aF0.0156
aF0.0156
aF0.0
aF0.0156
aF0.0
aF0.0
aF0.0156
aF0.0156
aF0.0156
aF0.0156
aF0.1719
aF0.0
aF0.0156
aF0.0
aF0.0
aF0.0
aF0.0156
aF0.0
aF0.0156
aF0.0
aF0.0156
aF0.0156
aF0.0312
aF0.0
aF0.0
aF0.0156
aF0.0
aF0.0
aF0.0312
aF0.0
aF0.0
aF0.0
aF0.0625
aF0.0156
aF0.0
aF0.0156
aF0.0
aF0.0156
aF0.0156
aF0.0
aF0.0
aF0.0
aF0.0469
aF0.0
aF0.0
aF0.0156
aF0.0156
aF0.0
aF0.0156
aF0.0
aF0.0156
aF0.0
aF0.0156
aF0.0
aF0.0
aF0.0
aF0.0
aF0.0156
aF0.0
aF0.0156
aF0.0156
aF0.0156
aF0.0
aF0.0
aF0.0
aF0.0156
aF0.0938
aF0.0
aF0.0156
aF0.0156
aF0.0
aF0.0156
aF0.0156
aF0.0
aF0.0
aF0.0
aF0.0
aF0.0156
aF0.0
aF0.0
aF0.0156
aF0.0156
aF0.0156
aF0.0156
aF0.0
aF0.0156
aF0.0625
aF0.0
aF0.0156
aF0.0156
aF0.0156
aF0.0
aF0.0156
aF0.0156
aF0.0
aF0.0
aF0.0156
aF0.0156
aF0.0156
aF0.0
aF0.0156
aF0.0156
aF0.0
aF0.0156
aF0.0
aF0.0156
aF0.0
aF0.0
aF0.0
aF0.0156
aF0.0156
aF0.0
aF0.0156
aF0.0
aF0.0
aF0.0
aF0.0
aF0.0156
aF0.0
aF0.0156
aF0.0
aF0.0156
aF0.0
aF0.0
aF0.0
aF0.0
aF0.0156
aF0.0
aF0.0156
aF0.0156
aF0.0
aF0.0
aF0.0
aF0.0
aF0.0156
asS'122.5'
p27
(lp28
F0.2188
aF0.2188
aF0.2031
aF0.2656
aF0.2031
aF0.1406
aF0.25
aF0.2969
aF0.2344
aF0.2656
aF0.3125
aF0.2969
aF0.375
aF0.2344
aF0.2344
aF0.2344
aF0.2656
aF0.1875
aF0.2812
aF0.2031
aF0.2344
aF0.3125
aF0.2188
aF0.2656
aF0.2188
aF0.25
aF0.3125
aF0.2656
aF0.2812
aF0.25
aF0.2188
aF0.1875
aF0.2969
aF0.2969
aF0.2656
aF0.2031
aF0.2812
aF0.3438
aF0.2031
aF0.25
aF0.2344
aF0.2188
aF0.25
aF0.2969
aF0.3125
aF0.2656
aF0.2344
aF0.2656
aF0.1719
aF0.2969
aF0.2188
aF0.2969
aF0.2344
aF0.2656
aF0.2344
aF0.2969
aF0.25
aF0.25
aF0.2969
aF0.2656
aF0.2969
aF0.2656
aF0.2188
aF0.2031
aF0.2656
aF0.2969
aF0.25
aF0.3438
aF0.2188
aF0.25
aF0.3438
aF0.2344
aF0.3125
aF0.0781
aF0.2812
aF0.2188
aF0.1719
aF0.2188
aF0.3125
aF0.25
aF0.2344
aF0.1875
aF0.2969
aF0.2656
aF0.2344
aF0.1719
aF0.2344
aF0.25
aF0.2031
aF0.25
aF0.2188
aF0.2812
aF0.2188
aF0.25
aF0.25
aF0.2812
aF0.2812
aF0.2188
aF0.3438
aF0.2969
aF0.3438
aF0.2188
aF0.2969
aF0.2656
aF0.2969
aF0.25
aF0.25
aF0.2188
aF0.3125
aF0.25
aF0.3125
aF0.2344
aF0.2656
aF0.2344
aF0.2656
aF0.2969
aF0.2344
aF0.25
aF0.1719
aF0.1719
aF0.1562
aF0.2188
aF0.1719
aF0.2031
aF0.2344
aF0.2969
aF0.25
aF0.3125
aF0.2031
aF0.1875
aF0.2969
aF0.2188
aF0.2188
aF0.2344
aF0.2344
aF0.2188
aF0.2031
aF0.2188
aF0.2188
aF0.3125
aF0.2812
aF0.1875
aF0.1719
aF0.2344
aF0.2188
aF0.2656
aF0.3125
aF0.2031
aF0.2344
aF0.2656
aF0.25
aF0.2656
aF0.1562
aF0.1875
aF0.1562
aF0.2812
aF0.2344
aF0.1875
aF0.25
aF0.2344
aF0.2344
aF0.2656
aF0.3125
aF0.2031
aF0.2031
aF0.2344
aF0.2344
aF0.2188
aF0.3281
aF0.2656
aF0.25
aF0.1719
aF0.2188
aF0.2656
aF0.1875
aF0.2812
aF0.2344
aF0.2188
aF0.2344
aF0.2031
aF0.1719
aF0.1406
aF0.2031
aF0.25
aF0.25
aF0.3125
aF0.2344
aF0.3125
aF0.2812
aF0.2656
aF0.2656
aF0.2969
aF0.2031
aF0.3281
aF0.2344
aF0.2344
aF0.2812
aF0.2656
aF0.2656
aF0.2188
aF0.2031
aF0.2656
aF0.125
aF0.3125
aF0.2031
aF0.2812
aF0.2812
aF0.25
aF0.2656
aF0.1875
aF0.1875
aF0.2656
aF0.25
aF0.2656
aF0.3125
aF0.25
aF0.2656
aF0.2188
aF0.1875
aF0.1875
aF0.2188
aF0.2812
aF0.2031
aF0.3438
aF0.2344
aF0.25
aF0.2344
aF0.1094
aF0.2188
aF0.2188
aF0.2344
aF0.2344
aF0.2969
aF0.4219
aF0.1094
aF0.2812
aF0.2188
aF0.2812
aF0.25
aF0.25
aF0.2031
aF0.2188
aF0.2188
aF0.2656
aF0.2969
aF0.1719
aF0.1562
aF0.25
aF0.2188
aF0.1875
asS'94.5'
p29
(lp30
F0.0781
aF0.1406
aF0.2188
aF0.125
aF0.0625
aF0.0781
aF0.1094
aF0.0312
aF0.2344
aF0.0781
aF0.2031
aF0.0938
aF0.1406
aF0.1094
aF0.0938
aF0.1406
aF0.1562
aF0.1719
aF0.0781
aF0.0469
aF0.1719
aF0.125
aF0.0469
aF0.1094
aF0.0312
aF0.2031
aF0.1406
aF0.1719
aF0.1406
aF0.1562
aF0.1562
aF0.125
aF0.1094
aF0.0469
aF0.125
aF0.125
aF0.0781
aF0.0781
aF0.0469
aF0.1406
aF0.1719
aF0.2812
aF0.125
aF0.0781
aF0.1562
aF0.2188
aF0.1875
aF0.1094
aF0.125
aF0.125
aF0.125
aF0.1094
aF0.1406
aF0.0938
aF0.0625
aF0.2031
aF0.1406
aF0.0938
aF0.0938
aF0.1094
aF0.0781
aF0.2344
aF0.0938
aF0.0469
aF0.125
aF0.0938
aF0.1406
aF0.1719
aF0.0781
aF0.1406
aF0.2031
aF0.0625
aF0.1406
aF0.1875
aF0.0781
aF0.1875
aF0.0938
aF0.1562
aF0.1094
aF0.0781
aF0.0938
aF0.1562
aF0.1562
aF0.0938
aF0.1094
aF0.1406
aF0.125
aF0.1094
aF0.0781
aF0.1875
aF0.125
aF0.0938
aF0.1094
aF0.1406
aF0.1094
aF0.1094
aF0.2812
aF0.0625
aF0.1562
aF0.1719
aF0.125
aF0.1875
aF0.1406
aF0.0938
aF0.1094
aF0.0781
aF0.1094
aF0.1562
aF0.125
aF0.2188
aF0.1094
aF0.2344
aF0.0938
aF0.0938
aF0.1562
aF0.1406
aF0.1875
aF0.0469
aF0.1406
aF0.1406
aF0.2656
aF0.1094
aF0.1719
aF0.1094
aF0.1562
aF0.125
aF0.0625
aF0.1875
aF0.2344
aF0.1406
aF0.1094
aF0.2031
aF0.1094
aF0.0781
aF0.1094
aF0.1719
aF0.1406
aF0.1094
aF0.1719
aF0.125
aF0.125
aF0.0781
aF0.0938
aF0.0469
aF0.1562
aF0.0781
aF0.125
aF0.1094
aF0.1562
aF0.1875
aF0.2188
aF0.1562
aF0.1562
aF0.1719
aF0.1719
aF0.1875
aF0.0938
aF0.2031
aF0.1094
aF0.0469
aF0.0938
aF0.1094
aF0.1562
aF0.1562
aF0.0156
aF0.0625
aF0.0938
aF0.0781
aF0.1094
aF0.2344
aF0.1719
aF0.1562
aF0.1094
aF0.0625
aF0.0625
aF0.1875
aF0.0938
aF0.1719
aF0.1094
aF0.125
aF0.1094
aF0.1562
aF0.0625
aF0.1094
aF0.1562
aF0.2344
aF0.25
aF0.125
aF0.1406
aF0.1719
aF0.0938
aF0.125
aF0.1875
aF0.0469
aF0.1562
aF0.0938
aF0.125
aF0.1562
aF0.1094
aF0.0938
aF0.125
aF0.0625
aF0.0938
aF0.1562
aF0.0781
aF0.0781
aF0.2656
aF0.1562
aF0.2188
aF0.1094
aF0.1562
aF0.1406
aF0.1406
aF0.125
aF0.0312
aF0.1719
aF0.1406
aF0.1719
aF0.1406
aF0.125
aF0.1875
aF0.0938
aF0.1562
aF0.1406
aF0.1719
aF0.0938
aF0.1719
aF0.0312
aF0.0625
aF0.1094
aF0.0312
aF0.1094
aF0.0938
aF0.1562
aF0.1719
aF0.2344
aF0.1094
aF0.0781
aF0.125
aF0.0938
aF0.2656
aF0.1094
aF0.1094
aF0.125
aF0.1562
aF0.1719
aF0.2344
aF0.125
aF0.0469
aF0.1875
asS'161.0'
p31
(lp32
F0.1875
aF0.3125
aF0.2344
aF0.2188
aF0.1719
aF0.2031
aF0.1875
aF0.2188
aF0.2188
aF0.2188
aF0.2812
aF0.25
aF0.2188
aF0.3281
aF0.2344
aF0.3438
aF0.1406
aF0.3594
aF0.2031
aF0.1719
aF0.2031
aF0.2344
aF0.2344
aF0.25
aF0.1719
aF0.2344
aF0.2344
aF0.2656
aF0.375
aF0.3438
aF0.1719
aF0.2031
aF0.2344
aF0.2344
aF0.2188
aF0.1875
aF0.25
aF0.3281
aF0.2656
aF0.3125
aF0.25
aF0.1875
aF0.2656
aF0.0781
aF0.25
aF0.1875
aF0.25
aF0.1562
aF0.2656
aF0.2812
aF0.3281
aF0.1875
aF0.1875
aF0.2188
aF0.1875
aF0.25
aF0.2031
aF0.2188
aF0.2188
aF0.2344
aF0.1875
aF0.25
aF0.2031
aF0.2188
aF0.2656
aF0.1875
aF0.25
aF0.2344
aF0.2188
aF0.2188
aF0.2656
aF0.1719
aF0.25
aF0.2188
aF0.2344
aF0.2031
aF0.2344
aF0.2656
aF0.2969
aF0.2656
aF0.3281
aF0.2188
aF0.2969
aF0.2656
aF0.2344
aF0.1562
aF0.25
aF0.3125
aF0.2969
aF0.2344
aF0.3281
aF0.2812
aF0.2969
aF0.2344
aF0.2656
aF0.2969
aF0.2344
aF0.25
aF0.2969
aF0.2344
aF0.1875
aF0.2188
aF0.1406
aF0.1406
aF0.2656
aF0.1719
aF0.1875
aF0.25
aF0.2188
aF0.2344
aF0.2969
aF0.2969
aF0.2656
aF0.25
aF0.2656
aF0.3281
aF0.2656
aF0.25
aF0.2344
aF0.3438
aF0.2812
aF0.2031
aF0.2656
aF0.3438
aF0.2188
aF0.2656
aF0.1875
aF0.25
aF0.2656
aF0.2812
aF0.2188
aF0.3594
aF0.2344
aF0.2969
aF0.2656
aF0.3438
aF0.1719
aF0.2969
aF0.3125
aF0.1875
aF0.2656
aF0.2656
aF0.2969
aF0.1406
aF0.1719
aF0.2344
aF0.2656
aF0.25
aF0.2656
aF0.2031
aF0.2656
aF0.3438
aF0.2188
aF0.25
aF0.2656
aF0.2656
aF0.2344
aF0.2656
aF0.2969
aF0.2656
aF0.2812
aF0.3438
aF0.2188
aF0.2656
aF0.25
aF0.1875
aF0.2812
aF0.1719
aF0.2031
aF0.2344
aF0.2812
aF0.2344
aF0.2656
aF0.1875
aF0.3594
aF0.2969
aF0.1719
aF0.25
aF0.2344
aF0.1562
aF0.25
aF0.2344
aF0.2812
aF0.2812
aF0.2188
aF0.2969
aF0.2812
aF0.1719
aF0.2188
aF0.2812
aF0.2812
aF0.2188
aF0.1875
aF0.3438
aF0.1562
aF0.2812
aF0.2344
aF0.2344
aF0.2969
aF0.2344
aF0.1875
aF0.25
aF0.2344
aF0.2969
aF0.3125
aF0.3438
aF0.3125
aF0.1719
aF0.2188
aF0.4062
aF0.2188
aF0.1875
aF0.1719
aF0.3281
aF0.3906
aF0.2344
aF0.125
aF0.2031
aF0.2812
aF0.2188
aF0.2656
aF0.2344
aF0.0938
aF0.3594
aF0.2031
aF0.3281
aF0.3438
aF0.1562
aF0.3125
aF0.3125
aF0.25
aF0.3125
aF0.3594
aF0.2656
aF0.25
aF0.1875
aF0.2656
aF0.2656
aF0.2344
aF0.1875
aF0.2812
aF0.2812
aF0.2812
aF0.2344
aF0.3281
aF0.1875
aF0.2969
aF0.25
aF0.3125
aF0.1875
asS'98.0'
p33
(lp34
F0.1562
aF0.1094
aF0.2344
aF0.1875
aF0.125
aF0.2031
aF0.125
aF0.0781
aF0.1562
aF0.125
aF0.1406
aF0.2031
aF0.1094
aF0.1562
aF0.125
aF0.1406
aF0.1094
aF0.2344
aF0.125
aF0.1562
aF0.3438
aF0.1875
aF0.125
aF0.0938
aF0.0938
aF0.1719
aF0.0781
aF0.1562
aF0.2188
aF0.1875
aF0.1719
aF0.2031
aF0.0938
aF0.0781
aF0.2344
aF0.1406
aF0.2344
aF0.1719
aF0.1406
aF0.0781
aF0.1562
aF0.1719
aF0.125
aF0.1406
aF0.125
aF0.2656
aF0.1094
aF0.1562
aF0.0938
aF0.1406
aF0.125
aF0.125
aF0.1875
aF0.1094
aF0.1094
aF0.1094
aF0.2031
aF0.2656
aF0.0938
aF0.1562
aF0.0938
aF0.0938
aF0.1719
aF0.1719
aF0.1094
aF0.2188
aF0.1094
aF0.1875
aF0.0781
aF0.1094
aF0.1406
aF0.1406
aF0.1562
aF0.1406
aF0.125
aF0.125
aF0.1406
aF0.2031
aF0.125
aF0.125
aF0.1875
aF0.2188
aF0.1094
aF0.1562
aF0.125
aF0.1719
aF0.2344
aF0.1562
aF0.1562
aF0.1719
aF0.2188
aF0.125
aF0.0312
aF0.125
aF0.1562
aF0.125
aF0.125
aF0.1094
aF0.2188
aF0.125
aF0.1094
aF0.0781
aF0.1094
aF0.125
aF0.1406
aF0.1562
aF0.0781
aF0.0938
aF0.1562
aF0.0938
aF0.1719
aF0.1094
aF0.2344
aF0.1719
aF0.125
aF0.1562
aF0.1406
aF0.0781
aF0.1406
aF0.2031
aF0.2188
aF0.1406
aF0.1094
aF0.125
aF0.1406
aF0.2188
aF0.1094
aF0.125
aF0.2031
aF0.2031
aF0.125
aF0.1562
aF0.1562
aF0.1094
aF0.2031
aF0.125
aF0.2656
aF0.1719
aF0.2188
aF0.125
aF0.1875
aF0.1406
aF0.0781
aF0.3281
aF0.125
aF0.125
aF0.1562
aF0.2656
aF0.1406
aF0.2812
aF0.2969
aF0.1406
aF0.1562
aF0.1562
aF0.1875
aF0.125
aF0.2031
aF0.1406
aF0.1562
aF0.0938
aF0.0625
aF0.2188
aF0.0781
aF0.1719
aF0.1562
aF0.1094
aF0.1562
aF0.125
aF0.2031
aF0.0312
aF0.0938
aF0.1406
aF0.125
aF0.2031
aF0.3438
aF0.1875
aF0.1406
aF0.1094
aF0.125
aF0.1875
aF0.1719
aF0.1875
aF0.1406
aF0.2031
aF0.25
aF0.1406
aF0.0625
aF0.1094
aF0.1875
aF0.0625
aF0.0938
aF0.1562
aF0.1406
aF0.1406
aF0.2344
aF0.1406
aF0.2031
aF0.2031
aF0.1094
aF0.1406
aF0.0938
aF0.1094
aF0.1094
aF0.2031
aF0.1094
aF0.1562
aF0.125
aF0.1719
aF0.125
aF0.1406
aF0.0625
aF0.125
aF0.1562
aF0.0781
aF0.2031
aF0.1406
aF0.1406
aF0.1875
aF0.1562
aF0.1406
aF0.125
aF0.2188
aF0.0781
aF0.2188
aF0.125
aF0.1094
aF0.125
aF0.1094
aF0.2031
aF0.2812
aF0.0312
aF0.0781
aF0.0938
aF0.2188
aF0.0625
aF0.0625
aF0.1562
aF0.125
aF0.125
aF0.25
aF0.0938
aF0.1562
aF0.1562
aF0.0625
aF0.1562
aF0.2188
aF0.1406
aF0.1562
aF0.2031
aF0.0781
asS'168.0'
p35
(lp36
F0.25
aF0.2188
aF0.25
aF0.2344
aF0.25
aF0.2656
aF0.2344
aF0.2812
aF0.3125
aF0.2344
aF0.2656
aF0.25
aF0.1562
aF0.25
aF0.2344
aF0.1875
aF0.2656
aF0.2656
aF0.2969
aF0.3594
aF0.2656
aF0.25
aF0.3906
aF0.2656
aF0.3281
aF0.2969
aF0.2344
aF0.2656
aF0.25
aF0.2812
aF0.25
aF0.2812
aF0.2344
aF0.3125
aF0.3281
aF0.2812
aF0.2344
aF0.2656
aF0.2656
aF0.2188
aF0.2969
aF0.2656
aF0.2344
aF0.2812
aF0.3125
aF0.2344
aF0.2969
aF0.3281
aF0.2969
aF0.2656
aF0.2344
aF0.1562
aF0.2656
aF0.2031
aF0.2812
aF0.1875
aF0.2031
aF0.3438
aF0.25
aF0.2656
aF0.1875
aF0.375
aF0.2188
aF0.25
aF0.1406
aF0.3438
aF0.3281
aF0.2656
aF0.2656
aF0.1875
aF0.2344
aF0.3594
aF0.3281
aF0.3125
aF0.2812
aF0.2969
aF0.2188
aF0.2344
aF0.2656
aF0.2344
aF0.2812
aF0.2812
aF0.2031
aF0.25
aF0.2812
aF0.2656
aF0.2812
aF0.2344
aF0.2656
aF0.3594
aF0.2969
aF0.1719
aF0.3125
aF0.2812
aF0.3281
aF0.1875
aF0.375
aF0.375
aF0.3594
aF0.2656
aF0.2656
aF0.2344
aF0.25
aF0.2656
aF0.2344
aF0.2969
aF0.25
aF0.3125
aF0.25
aF0.2344
aF0.2344
aF0.2812
aF0.2344
aF0.2344
aF0.375
aF0.2812
aF0.3281
aF0.25
aF0.3281
aF0.2031
aF0.3594
aF0.2656
aF0.375
aF0.25
aF0.2812
aF0.2812
aF0.3438
aF0.1719
aF0.3125
aF0.2656
aF0.25
aF0.1875
aF0.25
aF0.3438
aF0.2188
aF0.1719
aF0.3438
aF0.2344
aF0.2344
aF0.3438
aF0.3125
aF0.3281
aF0.2969
aF0.25
aF0.2656
aF0.2031
aF0.2969
aF0.2812
aF0.2656
aF0.25
aF0.2344
aF0.2969
aF0.2344
aF0.25
aF0.3438
aF0.3438
aF0.2656
aF0.3125
aF0.3125
aF0.2969
aF0.3438
aF0.375
aF0.3281
aF0.25
aF0.25
aF0.1875
aF0.2656
aF0.2031
aF0.375
aF0.2656
aF0.2969
aF0.25
aF0.2969
aF0.2344
aF0.2969
aF0.1719
aF0.3125
aF0.2812
aF0.2188
aF0.25
aF0.3281
aF0.2656
aF0.2812
aF0.25
aF0.2188
aF0.3438
aF0.3125
aF0.2344
aF0.1719
aF0.1875
aF0.3438
aF0.3281
aF0.3125
aF0.2344
aF0.2656
aF0.25
aF0.1719
aF0.25
aF0.3594
aF0.2344
aF0.2656
aF0.1562
aF0.2969
aF0.2969
aF0.375
aF0.2344
aF0.2656
aF0.2812
aF0.25
aF0.2344
aF0.2656
aF0.2812
aF0.2344
aF0.1719
aF0.2969
aF0.3281
aF0.2188
aF0.2812
aF0.2969
aF0.2812
aF0.2656
aF0.25
aF0.2969
aF0.2188
aF0.2031
aF0.2812
aF0.3125
aF0.2656
aF0.2656
aF0.3438
aF0.25
aF0.25
aF0.2969
aF0.25
aF0.2812
aF0.2656
aF0.2969
aF0.2188
aF0.1875
aF0.3438
aF0.1719
aF0.25
aF0.25
aF0.3125
aF0.2344
aF0.2656
aF0.2969
aF0.3281
aF0.3594
aF0.25
asS'73.5'
p37
(lp38
F0.1094
aF0.0781
aF0.0625
aF0.0781
aF0.0938
aF0.0625
aF0.0312
aF0.0312
aF0.0312
aF0.125
aF0.1094
aF0.0625
aF0.0781
aF0.0938
aF0.0781
aF0.0781
aF0.0625
aF0.1406
aF0.1562
aF0.0938
aF0.0469
aF0.0938
aF0.0938
aF0.0625
aF0.0938
aF0.0938
aF0.0938
aF0.0781
aF0.0781
aF0.0312
aF0.0781
aF0.1094
aF0.0312
aF0.0781
aF0.0938
aF0.0781
aF0.0312
aF0.0625
aF0.0469
aF0.0625
aF0.0625
aF0.0625
aF0.0781
aF0.0625
aF0.0938
aF0.0781
aF0.0938
aF0.0781
aF0.1406
aF0.0781
aF0.0938
aF0.1094
aF0.0625
aF0.0938
aF0.0781
aF0.0469
aF0.0938
aF0.0469
aF0.0625
aF0.0938
aF0.0781
aF0.0938
aF0.0938
aF0.0625
aF0.0781
aF0.0312
aF0.0781
aF0.0938
aF0.0625
aF0.0781
aF0.0625
aF0.0938
aF0.0938
aF0.0938
aF0.0625
aF0.1094
aF0.0781
aF0.0938
aF0.0781
aF0.0781
aF0.0781
aF0.0781
aF0.0781
aF0.0312
aF0.0938
aF0.0625
aF0.0938
aF0.1094
aF0.0938
aF0.0469
aF0.0625
aF0.0938
aF0.0781
aF0.0469
aF0.0625
aF0.0625
aF0.0469
aF0.0781
aF0.1406
aF0.0781
aF0.0781
aF0.0781
aF0.0625
aF0.0938
aF0.0625
aF0.0781
aF0.0938
aF0.0781
aF0.0625
aF0.0312
aF0.0469
aF0.0469
aF0.0938
aF0.0938
aF0.0625
aF0.0312
aF0.1094
aF0.0781
aF0.0312
aF0.0781
aF0.0938
aF0.0938
aF0.0781
aF0.0938
aF0.0312
aF0.0938
aF0.0781
aF0.0781
aF0.0781
aF0.0469
aF0.0625
aF0.1094
aF0.0938
aF0.0938
aF0.0625
aF0.0312
aF0.0469
aF0.0781
aF0.0781
aF0.0781
aF0.0312
aF0.0312
aF0.0938
aF0.0625
aF0.0938
aF0.0156
aF0.125
aF0.0469
aF0.1094
aF0.0938
aF0.0938
aF0.0781
aF0.0938
aF0.0625
aF0.0781
aF0.0781
aF0.1094
aF0.0781
aF0.0781
aF0.0938
aF0.0938
aF0.1094
aF0.0625
aF0.0625
aF0.0625
aF0.0625
aF0.0625
aF0.0781
aF0.0938
aF0.0469
aF0.0781
aF0.0938
aF0.0781
aF0.0781
aF0.0625
aF0.0625
aF0.0781
aF0.1094
aF0.0938
aF0.0781
aF0.0781
aF0.0781
aF0.0781
aF0.0625
aF0.0625
aF0.0938
aF0.0312
aF0.1094
aF0.0625
aF0.1094
aF0.0156
aF0.0781
aF0.1406
aF0.0469
aF0.0938
aF0.0469
aF0.1094
aF0.0312
aF0.0781
aF0.0781
aF0.0938
aF0.0625
aF0.0781
aF0.1094
aF0.0938
aF0.0938
aF0.0781
aF0.0625
aF0.0625
aF0.0938
aF0.0938
aF0.125
aF0.0469
aF0.0781
aF0.0625
aF0.0938
aF0.125
aF0.0625
aF0.0938
aF0.0625
aF0.1094
aF0.0781
aF0.0625
aF0.0781
aF0.0781
aF0.0781
aF0.0938
aF0.0312
aF0.1094
aF0.0938
aF0.0625
aF0.0625
aF0.0938
aF0.1094
aF0.0781
aF0.0625
aF0.0938
aF0.0312
aF0.0781
aF0.0625
aF0.0781
aF0.0469
aF0.0938
aF0.0781
aF0.0781
aF0.1094
aF0.0938
aF0.125
aF0.0781
aF0.0781
asS'17.5'
p39
(lp40
F0.0156
aF0.0
aF0.0
aF0.0156
aF0.0
aF0.0156
aF0.0
aF0.0156
aF0.0
aF0.0156
aF0.0
aF0.0156
aF0.0156
aF0.0
aF0.0
aF0.0
aF0.0156
aF0.0156
aF0.0
aF0.0625
aF0.0
aF0.0156
aF0.0156
aF0.0156
aF0.0156
aF0.0156
aF0.0
aF0.0
aF0.0
aF0.0
aF0.0156
aF0.0156
aF0.0625
aF0.0
aF0.0
aF0.0156
aF0.0156
aF0.0
aF0.0
aF0.0156
aF0.0156
aF0.0156
aF0.0
aF0.0
aF0.0
aF0.0156
aF0.0
aF0.0
aF0.0
aF0.0
aF0.0156
aF0.0
aF0.0156
aF0.0156
aF0.0
aF0.0156
aF0.0312
aF0.0
aF0.0
aF0.0
aF0.0
aF0.0
aF0.0156
aF0.0156
aF0.2031
aF0.0
aF0.0
aF0.0
aF0.0156
aF0.0156
aF0.0156
aF0.0
aF0.0156
aF0.0156
aF0.0
aF0.0156
aF0.0
aF0.0156
aF0.0
aF0.0156
aF0.0
aF0.0
aF0.0
aF0.0156
aF0.0
aF0.0156
aF0.0
aF0.0156
aF0.0
aF0.0156
aF0.0156
aF0.0156
aF0.0156
aF0.0
aF0.0156
aF0.0
aF0.0156
aF0.0
aF0.0156
aF0.0
aF0.0156
aF0.0156
aF0.0156
aF0.0
aF0.0156
aF0.0156
aF0.0156
aF0.0
aF0.0
aF0.0
aF0.0156
aF0.0156
aF0.0156
aF0.0156
aF0.0156
aF0.0
aF0.0156
aF0.0156
aF0.0156
aF0.0
aF0.0
aF0.0156
aF0.0156
aF0.0156
aF0.0156
aF0.0
aF0.0
aF0.0
aF0.0156
aF0.0
aF0.0156
aF0.0156
aF0.0
aF0.0156
aF0.0156
aF0.0
aF0.0
aF0.0
aF0.0156
aF0.0156
aF0.0
aF0.0
aF0.0156
aF0.0
aF0.0156
aF0.0156
aF0.0
aF0.0156
aF0.0156
aF0.0
aF0.0156
aF0.0156
aF0.0
aF0.0156
aF0.0156
aF0.0156
aF0.0
aF0.0
aF0.0
aF0.0
aF0.0156
aF0.0
aF0.0156
aF0.0
aF0.0156
aF0.0156
aF0.0
aF0.0156
aF0.0156
aF0.0156
aF0.0156
aF0.0156
aF0.0156
aF0.0156
aF0.0
aF0.0156
aF0.0
aF0.0156
aF0.0
aF0.0
aF0.0156
aF0.0781
aF0.0
aF0.0156
aF0.0156
aF0.0156
aF0.0
aF0.0156
aF0.0156
aF0.0156
aF0.0938
aF0.0469
aF0.0
aF0.0156
aF0.0156
aF0.0156
aF0.0156
aF0.0625
aF0.0156
aF0.0156
aF0.0156
aF0.0
aF0.0156
aF0.0156
aF0.0469
aF0.0
aF0.0156
aF0.0156
aF0.0469
aF0.0156
aF0.0
aF0.0156
aF0.0156
aF0.0
aF0.0
aF0.0
aF0.0156
aF0.0
aF0.0
aF0.0
aF0.0156
aF0.0
aF0.0
aF0.0156
aF0.0469
aF0.0
aF0.0
aF0.0156
aF0.0156
aF0.0156
aF0.0156
aF0.0
aF0.0156
aF0.0156
aF0.0156
aF0.0
aF0.0156
aF0.0
aF0.0156
aF0.0156
aF0.0
aF0.0
aF0.0
aF0.0
aF0.0156
aF0.0156
aF0.0156
aF0.0
aF0.0
aF0.0156
asS'77.0'
p41
(lp42
F0.0625
aF0.0469
aF0.0781
aF0.0781
aF0.0781
aF0.1094
aF0.0938
aF0.0781
aF0.1094
aF0.0938
aF0.0938
aF0.0625
aF0.125
aF0.0469
aF0.0781
aF0.0938
aF0.1094
aF0.0938
aF0.0625
aF0.1406
aF0.0938
aF0.0938
aF0.125
aF0.0469
aF0.0312
aF0.1094
aF0.0625
aF0.0781
aF0.0938
aF0.0781
aF0.125
aF0.0625
aF0.0938
aF0.0938
aF0.125
aF0.0469
aF0.0938
aF0.0781
aF0.0625
aF0.0625
aF0.1094
aF0.0312
aF0.0938
aF0.0938
aF0.0781
aF0.0312
aF0.1094
aF0.0469
aF0.0938
aF0.1562
aF0.0781
aF0.0625
aF0.0312
aF0.1094
aF0.1094
aF0.0781
aF0.0312
aF0.1094
aF0.0625
aF0.0938
aF0.0938
aF0.0625
aF0.0625
aF0.0781
aF0.1094
aF0.125
aF0.0938
aF0.0938
aF0.0781
aF0.1094
aF0.0938
aF0.0781
aF0.0312
aF0.0781
aF0.1094
aF0.0781
aF0.0938
aF0.0781
aF0.0938
aF0.125
aF0.125
aF0.1094
aF0.0781
aF0.0938
aF0.1406
aF0.0781
aF0.125
aF0.1094
aF0.0625
aF0.1094
aF0.0938
aF0.0781
aF0.0781
aF0.0938
aF0.0781
aF0.0938
aF0.0625
aF0.1094
aF0.1406
aF0.0938
aF0.1562
aF0.0781
aF0.1094
aF0.125
aF0.1094
aF0.0781
aF0.0781
aF0.0781
aF0.1406
aF0.0625
aF0.0312
aF0.1094
aF0.0625
aF0.125
aF0.0781
aF0.1094
aF0.0938
aF0.0938
aF0.125
aF0.1094
aF0.0781
aF0.0781
aF0.1094
aF0.0781
aF0.0312
aF0.1094
aF0.125
aF0.0781
aF0.0938
aF0.1094
aF0.125
aF0.0781
aF0.0781
aF0.0781
aF0.0938
aF0.1094
aF0.1094
aF0.0625
aF0.1094
aF0.0938
aF0.0625
aF0.1406
aF0.1094
aF0.1094
aF0.0938
aF0.0781
aF0.0938
aF0.0625
aF0.1094
aF0.1094
aF0.125
aF0.125
aF0.0312
aF0.0625
aF0.0469
aF0.0938
aF0.0938
aF0.0938
aF0.0781
aF0.0781
aF0.0781
aF0.0938
aF0.0781
aF0.1406
aF0.0781
aF0.0625
aF0.0938
aF0.0781
aF0.0938
aF0.0781
aF0.1094
aF0.0469
aF0.1094
aF0.0938
aF0.0781
aF0.0312
aF0.0625
aF0.0781
aF0.0938
aF0.0781
aF0.0469
aF0.0781
aF0.0625
aF0.0781
aF0.0781
aF0.0938
aF0.0938
aF0.0312
aF0.0781
aF0.1094
aF0.1094
aF0.0938
aF0.0625
aF0.0625
aF0.0469
aF0.0781
aF0.0781
aF0.1094
aF0.0938
aF0.0469
aF0.0312
aF0.0938
aF0.1094
aF0.0938
aF0.125
aF0.1094
aF0.1094
aF0.0781
aF0.0938
aF0.0938
aF0.0781
aF0.1094
aF0.0781
aF0.0625
aF0.0781
aF0.0625
aF0.0938
aF0.1094
aF0.0781
aF0.0938
aF0.0781
aF0.0156
aF0.0781
aF0.1094
aF0.1406
aF0.1094
aF0.0312
aF0.0938
aF0.0938
aF0.0938
aF0.0781
aF0.1094
aF0.0781
aF0.125
aF0.0938
aF0.0938
aF0.0781
aF0.0938
aF0.1094
aF0.0938
aF0.0781
aF0.0781
aF0.1094
aF0.0781
aF0.1094
aF0.0781
aF0.0781
aF0.1094
aF0.0781
aF0.0781
asS'35.0'
p43
(lp44
F0.0
aF0.0
aF0.0156
aF0.0
aF0.0312
aF0.0469
aF0.0469
aF0.0312
aF0.0156
aF0.0
aF0.0
aF0.0312
aF0.0312
aF0.0
aF0.0312
aF0.0156
aF0.0312
aF0.0312
aF0.0156
aF0.0156
aF0.0469
aF0.0156
aF0.0156
aF0.0312
aF0.0312
aF0.0
aF0.0156
aF0.0312
aF0.0156
aF0.0156
aF0.0156
aF0.0312
aF0.0156
aF0.0
aF0.0312
aF0.0156
aF0.0156
aF0.0469
aF0.0312
aF0.0156
aF0.0156
aF0.0469
aF0.0312
aF0.0312
aF0.0
aF0.0312
aF0.0312
aF0.0156
aF0.0312
aF0.0312
aF0.0156
aF0.0469
aF0.0
aF0.0156
aF0.0312
aF0.0312
aF0.0
aF0.0312
aF0.0312
aF0.0312
aF0.0156
aF0.0312
aF0.0312
aF0.0312
aF0.0156
aF0.0156
aF0.0312
aF0.0469
aF0.0312
aF0.0
aF0.0312
aF0.0156
aF0.0156
aF0.0469
aF0.0156
aF0.0312
aF0.0469
aF0.0312
aF0.0156
aF0.0156
aF0.0156
aF0.0312
aF0.0312
aF0.0156
aF0.0156
aF0.0312
aF0.0156
aF0.0156
aF0.0156
aF0.0156
aF0.0156
aF0.0156
aF0.0156
aF0.0625
aF0.0156
aF0.0156
aF0.0312
aF0.0469
aF0.0156
aF0.0156
aF0.0156
aF0.0312
aF0.0156
aF0.0156
aF0.0312
aF0.0156
aF0.0312
aF0.125
aF0.0312
aF0.0312
aF0.0156
aF0.0156
aF0.0469
aF0.0312
aF0.0156
aF0.0312
aF0.0312
aF0.0312
aF0.0312
aF0.0312
aF0.0156
aF0.0156
aF0.0156
aF0.0156
aF0.0156
aF0.0312
aF0.0312
aF0.0312
aF0.0469
aF0.0156
aF0.1719
aF0.0312
aF0.0469
aF0.0312
aF0.0156
aF0.0312
aF0.0156
aF0.0312
aF0.0
aF0.0156
aF0.0156
aF0.0312
aF0.0156
aF0.0312
aF0.0312
aF0.0
aF0.0312
aF0.0156
aF0.0312
aF0.0156
aF0.0312
aF0.0312
aF0.0156
aF0.0156
aF0.0469
aF0.0156
aF0.0156
aF0.0469
aF0.0156
aF0.0312
aF0.1406
aF0.0
aF0.0
aF0.0156
aF0.0156
aF0.0156
aF0.0156
aF0.0156
aF0.0312
aF0.0312
aF0.0312
aF0.0312
aF0.0312
aF0.0469
aF0.0156
aF0.0156
aF0.0156
aF0.0312
aF0.0156
aF0.0156
aF0.0156
aF0.0312
aF0.0156
aF0.0312
aF0.0
aF0.0
aF0.0156
aF0.0
aF0.0
aF0.0
aF0.0156
aF0.0156
aF0.0
aF0.0156
aF0.0156
aF0.0469
aF0.0312
aF0.0156
aF0.0156
aF0.0156
aF0.0
aF0.0312
aF0.0
aF0.0312
aF0.0312
aF0.0156
aF0.0625
aF0.0156
aF0.0156
aF0.0156
aF0.0312
aF0.0156
aF0.0312
aF0.0156
aF0.0312
aF0.0312
aF0.0312
aF0.0156
aF0.0312
aF0.0469
aF0.0938
aF0.0469
aF0.0312
aF0.0469
aF0.0469
aF0.0312
aF0.0312
aF0.0781
aF0.0
aF0.0156
aF0.0156
aF0.0
aF0.0469
aF0.0312
aF0.0
aF0.0625
aF0.0469
aF0.0
aF0.0
aF0.0156
aF0.125
aF0.0156
aF0.0312
aF0.0312
aF0.0312
aF0.0
aF0.0156
aF0.0156
aF0.0
aF0.0312
asS'101.5'
p45
(lp46
F0.2031
aF0.0938
aF0.1719
aF0.2031
aF0.2656
aF0.1719
aF0.0938
aF0.0469
aF0.1406
aF0.1719
aF0.1094
aF0.1406
aF0.2188
aF0.1094
aF0.2812
aF0.125
aF0.1094
aF0.2188
aF0.1562
aF0.0938
aF0.1875
aF0.2188
aF0.2344
aF0.125
aF0.1406
aF0.0938
aF0.25
aF0.2656
aF0.25
aF0.1875
aF0.25
aF0.1562
aF0.1875
aF0.0469
aF0.375
aF0.1406
aF0.1562
aF0.1562
aF0.2812
aF0.1875
aF0.1719
aF0.125
aF0.2031
aF0.1562
aF0.2031
aF0.1562
aF0.1719
aF0.2344
aF0.1875
aF0.2344
aF0.125
aF0.1094
aF0.1406
aF0.1875
aF0.1719
aF0.2344
aF0.1406
aF0.0938
aF0.2188
aF0.2344
aF0.125
aF0.1719
aF0.0625
aF0.1875
aF0.125
aF0.125
aF0.125
aF0.125
aF0.2812
aF0.1875
aF0.2344
aF0.1875
aF0.1875
aF0.1562
aF0.1406
aF0.1719
aF0.0938
aF0.1562
aF0.1406
aF0.1406
aF0.1406
aF0.1406
aF0.3125
aF0.1875
aF0.0938
aF0.1719
aF0.1406
aF0.1875
aF0.0781
aF0.1406
aF0.1875
aF0.2344
aF0.1719
aF0.1875
aF0.2656
aF0.1406
aF0.1562
aF0.125
aF0.2656
aF0.1094
aF0.1406
aF0.25
aF0.1562
aF0.1406
aF0.2031
aF0.2344
aF0.2344
aF0.1875
aF0.1875
aF0.1406
aF0.2031
aF0.125
aF0.1719
aF0.125
aF0.1562
aF0.1719
aF0.1406
aF0.1562
aF0.4219
aF0.1719
aF0.25
aF0.2031
aF0.2656
aF0.1875
aF0.2344
aF0.1562
aF0.2188
aF0.2188
aF0.1719
aF0.1562
aF0.2031
aF0.1094
aF0.1875
aF0.2031
aF0.2812
aF0.1406
aF0.2188
aF0.1094
aF0.1562
aF0.1719
aF0.125
aF0.1094
aF0.1719
aF0.2031
aF0.1094
aF0.0938
aF0.25
aF0.1406
aF0.3125
aF0.1562
aF0.1875
aF0.1875
aF0.2031
aF0.1875
aF0.1719
aF0.1094
aF0.2031
aF0.125
aF0.125
aF0.1719
aF0.2031
aF0.1719
aF0.1406
aF0.2031
aF0.1875
aF0.1719
aF0.2188
aF0.1719
aF0.0781
aF0.0781
aF0.1719
aF0.25
aF0.2031
aF0.2188
aF0.125
aF0.1719
aF0.1406
aF0.1406
aF0.1562
aF0.2656
aF0.2031
aF0.1406
aF0.3125
aF0.1875
aF0.2344
aF0.2031
aF0.0938
aF0.1094
aF0.1094
aF0.1562
aF0.1719
aF0.2344
aF0.125
aF0.2969
aF0.3125
aF0.1406
aF0.1406
aF0.1719
aF0.1562
aF0.1406
aF0.1875
aF0.1406
aF0.1875
aF0.1875
aF0.2188
aF0.2031
aF0.1875
aF0.2656
aF0.2031
aF0.1094
aF0.1875
aF0.2031
aF0.1094
aF0.2031
aF0.25
aF0.2188
aF0.1562
aF0.1562
aF0.1719
aF0.1719
aF0.2188
aF0.1719
aF0.1562
aF0.1094
aF0.1094
aF0.1719
aF0.25
aF0.1875
aF0.2031
aF0.1406
aF0.2031
aF0.2031
aF0.1875
aF0.2031
aF0.1719
aF0.1562
aF0.2656
aF0.1562
aF0.2188
aF0.1406
aF0.1562
aF0.1719
aF0.2344
aF0.1875
aF0.25
aF0.1875
aF0.1875
aF0.1562
aF0.2969
aF0.125
asS'143.5'
p47
(lp48
F0.25
aF0.3281
aF0.2344
aF0.2656
aF0.2812
aF0.2812
aF0.3281
aF0.2969
aF0.2656
aF0.2969
aF0.2188
aF0.2812
aF0.2344
aF0.2188
aF0.4375
aF0.2656
aF0.3438
aF0.2344
aF0.1875
aF0.2031
aF0.25
aF0.3281
aF0.3594
aF0.2969
aF0.2812
aF0.1719
aF0.2031
aF0.25
aF0.2812
aF0.3125
aF0.2656
aF0.2969
aF0.2344
aF0.2812
aF0.25
aF0.3438
aF0.3125
aF0.2969
aF0.25
aF0.3125
aF0.3438
aF0.2188
aF0.2969
aF0.2656
aF0.3438
aF0.2969
aF0.3125
aF0.1875
aF0.3906
aF0.2812
aF0.1719
aF0.3438
aF0.3125
aF0.25
aF0.25
aF0.2188
aF0.3438
aF0.3906
aF0.3125
aF0.25
aF0.2969
aF0.2969
aF0.2031
aF0.2188
aF0.2812
aF0.3594
aF0.25
aF0.2656
aF0.2188
aF0.2812
aF0.1875
aF0.3125
aF0.25
aF0.2031
aF0.2656
aF0.3125
aF0.1719
aF0.4219
aF0.25
aF0.2656
aF0.2188
aF0.2812
aF0.2031
aF0.3125
aF0.1875
aF0.3906
aF0.2812
aF0.1875
aF0.2344
aF0.1875
aF0.2969
aF0.375
aF0.3594
aF0.125
aF0.3594
aF0.3281
aF0.2188
aF0.2812
aF0.25
aF0.3438
aF0.25
aF0.1719
aF0.2969
aF0.3438
aF0.2188
aF0.1562
aF0.2812
aF0.2969
aF0.2188
aF0.2031
aF0.3438
aF0.2812
aF0.2812
aF0.3438
aF0.2344
aF0.2969
aF0.3438
aF0.2188
aF0.2188
aF0.25
aF0.2812
aF0.2656
aF0.2969
aF0.3594
aF0.2344
aF0.3281
aF0.2344
aF0.2969
aF0.3281
aF0.2969
aF0.2812
aF0.2188
aF0.2656
aF0.4062
aF0.1094
aF0.2656
aF0.2344
aF0.3125
aF0.2031
aF0.3594
aF0.3125
aF0.375
aF0.2969
aF0.2031
aF0.2656
aF0.4219
aF0.2969
aF0.3125
aF0.2031
aF0.2344
aF0.3594
aF0.2344
aF0.3281
aF0.2344
aF0.2188
aF0.4375
aF0.2969
aF0.2812
aF0.1562
aF0.2031
aF0.3438
aF0.3281
aF0.2344
aF0.2812
aF0.4062
aF0.25
aF0.3594
aF0.2344
aF0.2031
aF0.375
aF0.3594
aF0.2188
aF0.3594
aF0.2812
aF0.2344
aF0.2656
aF0.2031
aF0.2344
aF0.2344
aF0.2344
aF0.2656
aF0.3125
aF0.2031
aF0.3438
aF0.2969
aF0.3281
aF0.2656
aF0.2031
aF0.3438
aF0.3906
aF0.4062
aF0.3125
aF0.2969
aF0.25
aF0.2344
aF0.2031
aF0.3594
aF0.1562
aF0.2812
aF0.4062
aF0.3281
aF0.25
aF0.2969
aF0.3125
aF0.3594
aF0.3125
aF0.2656
aF0.2812
aF0.3906
aF0.3438
aF0.25
aF0.3906
aF0.2812
aF0.2969
aF0.25
aF0.3125
aF0.2656
aF0.2969
aF0.3125
aF0.2656
aF0.2344
aF0.4219
aF0.3281
aF0.2188
aF0.3438
aF0.25
aF0.3125
aF0.2188
aF0.3125
aF0.2969
aF0.2344
aF0.2812
aF0.2812
aF0.3281
aF0.25
aF0.2812
aF0.2969
aF0.2812
aF0.1719
aF0.3281
aF0.1875
aF0.25
aF0.25
aF0.2188
aF0.2344
aF0.2656
aF0.3281
aF0.2344
aF0.3281
aF0.125
asS'126.0'
p49
(lp50
F0.2031
aF0.1406
aF0.25
aF0.2188
aF0.2969
aF0.2031
aF0.1406
aF0.125
aF0.1406
aF0.1875
aF0.1562
aF0.2031
aF0.1719
aF0.1875
aF0.2969
aF0.2188
aF0.125
aF0.25
aF0.1406
aF0.2188
aF0.1875
aF0.2031
aF0.1094
aF0.1406
aF0.1875
aF0.1562
aF0.1562
aF0.1562
aF0.2031
aF0.2188
aF0.2656
aF0.2344
aF0.2031
aF0.25
aF0.2031
aF0.2812
aF0.25
aF0.2656
aF0.2969
aF0.25
aF0.2344
aF0.2031
aF0.1719
aF0.1406
aF0.25
aF0.1719
aF0.1406
aF0.1875
aF0.2031
aF0.2031
aF0.2656
aF0.3281
aF0.3281
aF0.2344
aF0.1562
aF0.2344
aF0.3438
aF0.3281
aF0.2188
aF0.2031
aF0.125
aF0.1719
aF0.1719
aF0.25
aF0.1406
aF0.2656
aF0.1406
aF0.1562
aF0.1719
aF0.2344
aF0.25
aF0.1719
aF0.2344
aF0.1719
aF0.2344
aF0.1719
aF0.2188
aF0.25
aF0.125
aF0.2656
aF0.2188
aF0.1406
aF0.2188
aF0.1875
aF0.2656
aF0.1719
aF0.1875
aF0.125
aF0.1562
aF0.1094
aF0.1875
aF0.1562
aF0.25
aF0.1875
aF0.2188
aF0.1875
aF0.1875
aF0.1875
aF0.2188
aF0.2656
aF0.1562
aF0.1406
aF0.125
aF0.2188
aF0.3125
aF0.25
aF0.2344
aF0.1875
aF0.1719
aF0.2188
aF0.1719
aF0.1875
aF0.2031
aF0.1406
aF0.3125
aF0.1562
aF0.2656
aF0.1562
aF0.1875
aF0.1719
aF0.2188
aF0.2031
aF0.2344
aF0.1719
aF0.1406
aF0.2656
aF0.2188
aF0.1406
aF0.2344
aF0.25
aF0.1875
aF0.1406
aF0.2031
aF0.2969
aF0.2344
aF0.2031
aF0.2031
aF0.1406
aF0.3281
aF0.1562
aF0.2344
aF0.2188
aF0.125
aF0.2188
aF0.2969
aF0.1719
aF0.2344
aF0.1719
aF0.1719
aF0.1875
aF0.2031
aF0.1562
aF0.1562
aF0.0938
aF0.1719
aF0.25
aF0.2656
aF0.0938
aF0.1562
aF0.2031
aF0.2188
aF0.1875
aF0.1719
aF0.1719
aF0.1562
aF0.25
aF0.1719
aF0.2031
aF0.1719
aF0.2031
aF0.2031
aF0.1875
aF0.2188
aF0.2031
aF0.2031
aF0.1562
aF0.2188
aF0.2344
aF0.1406
aF0.1875
aF0.1875
aF0.1562
aF0.1875
aF0.2031
aF0.125
aF0.1719
aF0.1406
aF0.2344
aF0.1875
aF0.2031
aF0.2188
aF0.1406
aF0.1875
aF0.1875
aF0.2656
aF0.1875
aF0.2188
aF0.1719
aF0.2188
aF0.1562
aF0.1719
aF0.25
aF0.2188
aF0.1406
aF0.25
aF0.1406
aF0.125
aF0.2031
aF0.1719
aF0.2031
aF0.2188
aF0.1875
aF0.2031
aF0.0781
aF0.1875
aF0.2188
aF0.0938
aF0.2344
aF0.3438
aF0.1094
aF0.125
aF0.1719
aF0.1562
aF0.1875
aF0.1719
aF0.2344
aF0.2188
aF0.25
aF0.2812
aF0.3125
aF0.2656
aF0.2188
aF0.2188
aF0.1562
aF0.25
aF0.2188
aF0.2656
aF0.2812
aF0.2344
aF0.3125
aF0.1406
aF0.25
aF0.1562
aF0.2188
aF0.2344
aF0.2188
aF0.2031
aF0.2031
aF0.1719
aF0.1875
asS'70.0'
p51
(lp52
F0.1094
aF0.0625
aF0.0625
aF0.0625
aF0.0781
aF0.0938
aF0.0312
aF0.125
aF0.0781
aF0.0938
aF0.0312
aF0.0781
aF0.0938
aF0.0625
aF0.0312
aF0.0312
aF0.0938
aF0.0938
aF0.0781
aF0.0625
aF0.0781
aF0.0625
aF0.0781
aF0.0625
aF0.1094
aF0.125
aF0.125
aF0.0625
aF0.0781
aF0.0938
aF0.0625
aF0.0938
aF0.0938
aF0.0781
aF0.0938
aF0.0938
aF0.0625
aF0.0625
aF0.0781
aF0.0781
aF0.0781
aF0.0781
aF0.1094
aF0.0781
aF0.0781
aF0.0781
aF0.0781
aF0.0781
aF0.1094
aF0.0625
aF0.0938
aF0.0781
aF0.0625
aF0.0938
aF0.0781
aF0.0469
aF0.0781
aF0.0625
aF0.1094
aF0.0781
aF0.0781
aF0.0938
aF0.0781
aF0.0625
aF0.0938
aF0.0469
aF0.125
aF0.0938
aF0.0938
aF0.0938
aF0.0781
aF0.0938
aF0.125
aF0.0781
aF0.0938
aF0.0781
aF0.0781
aF0.0469
aF0.0781
aF0.0781
aF0.0938
aF0.0781
aF0.0625
aF0.1094
aF0.0781
aF0.0156
aF0.0469
aF0.0938
aF0.1094
aF0.0938
aF0.0312
aF0.0625
aF0.0781
aF0.0781
aF0.0781
aF0.0781
aF0.125
aF0.0625
aF0.0625
aF0.0781
aF0.0781
aF0.0625
aF0.0781
aF0.0781
aF0.0781
aF0.0781
aF0.0781
aF0.1094
aF0.0938
aF0.0938
aF0.0781
aF0.0781
aF0.0781
aF0.0312
aF0.0469
aF0.1094
aF0.0625
aF0.0469
aF0.0938
aF0.0469
aF0.0938
aF0.0781
aF0.0312
aF0.1094
aF0.0156
aF0.0312
aF0.1094
aF0.0625
aF0.1094
aF0.0781
aF0.0625
aF0.0938
aF0.0469
aF0.0469
aF0.0625
aF0.0938
aF0.0625
aF0.0156
aF0.0625
aF0.0625
aF0.1094
aF0.0781
aF0.0781
aF0.0938
aF0.0469
aF0.0781
aF0.0625
aF0.0312
aF0.1094
aF0.0781
aF0.125
aF0.0625
aF0.0469
aF0.0469
aF0.0938
aF0.0469
aF0.0625
aF0.0938
aF0.0625
aF0.0781
aF0.0469
aF0.0625
aF0.125
aF0.0938
aF0.0625
aF0.0625
aF0.1406
aF0.0781
aF0.0938
aF0.0781
aF0.1094
aF0.0469
aF0.0781
aF0.1094
aF0.0781
aF0.0938
aF0.0938
aF0.0781
aF0.1094
aF0.0625
aF0.1406
aF0.0625
aF0.0625
aF0.0156
aF0.0781
aF0.0781
aF0.0938
aF0.0781
aF0.0781
aF0.0625
aF0.1094
aF0.0781
aF0.0781
aF0.0938
aF0.0781
aF0.0469
aF0.1094
aF0.0781
aF0.0625
aF0.1094
aF0.0781
aF0.0781
aF0.0781
aF0.0781
aF0.0625
aF0.0781
aF0.0781
aF0.0625
aF0.0781
aF0.0781
aF0.0781
aF0.0781
aF0.0625
aF0.0781
aF0.0625
aF0.1094
aF0.0781
aF0.0781
aF0.0781
aF0.0938
aF0.0938
aF0.0781
aF0.1562
aF0.0625
aF0.0625
aF0.0625
aF0.0312
aF0.0625
aF0.0625
aF0.0938
aF0.0469
aF0.0625
aF0.1406
aF0.0938
aF0.0781
aF0.1094
aF0.125
aF0.1094
aF0.0781
aF0.0938
aF0.0625
aF0.0938
aF0.0625
aF0.0781
aF0.0781
aF0.0938
aF0.0781
aF0.0781
aF0.0625
aF0.0625
asS'150.5'
p53
(lp54
F0.3281
aF0.5156
aF0.25
aF0.5312
aF0.3594
aF0.4844
aF0.2188
aF0.5312
aF0.1875
aF0.6406
aF0.2812
aF0.5
aF0.1719
aF0.5469
aF0.2656
aF0.5469
aF0.2031
aF0.5312
aF0.3125
aF0.4844
aF0.2031
aF0.5156
aF0.2188
aF0.5312
aF0.2656
aF0.5
aF0.2656
aF0.5
aF0.2344
aF0.5312
aF0.2969
aF0.5625
aF0.2812
aF0.6094
aF0.2656
aF0.5469
aF0.2969
aF0.5312
aF0.25
aF0.4375
aF0.2656
aF0.4531
aF0.2656
aF0.5469
aF0.25
aF0.4375
aF0.3125
aF0.5938
aF0.25
aF0.4844
aF0.25
aF0.4844
aF0.2812
aF0.5625
aF0.2656
aF0.5
aF0.25
aF0.5469
aF0.3438
aF0.4531
aF0.2812
aF0.5781
aF0.2188
aF0.5469
aF0.25
aF0.5781
aF0.3281
aF0.4844
aF0.1719
aF0.5781
aF0.2656
aF0.5156
aF0.3125
aF0.5469
aF0.2188
aF0.4531
aF0.3125
aF0.4219
aF0.2344
aF0.5312
aF0.1719
aF0.5938
aF0.2344
aF0.5781
aF0.25
aF0.5156
aF0.1719
aF0.5625
aF0.2812
aF0.5469
aF0.2969
aF0.5625
aF0.3438
aF0.4531
aF0.3438
aF0.5625
aF0.25
aF0.4844
aF0.2656
aF0.4844
aF0.1562
aF0.4688
aF0.2031
aF0.4688
aF0.25
aF0.5781
aF0.2188
aF0.5312
aF0.2812
aF0.5781
aF0.2188
aF0.5156
aF0.2188
aF0.4531
aF0.2188
aF0.5
aF0.2344
aF0.5625
aF0.2656
aF0.5312
aF0.25
aF0.5625
aF0.3594
aF0.5781
aF0.3125
aF0.5781
aF0.3125
aF0.5
aF0.2188
aF0.5469
aF0.2812
aF0.4219
aF0.25
aF0.5469
aF0.2969
aF0.5625
aF0.4062
aF0.5156
aF0.2812
aF0.5156
aF0.25
aF0.5781
aF0.2188
aF0.625
aF0.2812
aF0.4531
aF0.3125
aF0.5781
aF0.1875
aF0.5312
aF0.2812
aF0.625
aF0.25
aF0.5156
aF0.2656
aF0.4844
aF0.2656
aF0.4688
aF0.2188
aF0.5469
aF0.2969
aF0.4844
aF0.1875
aF0.6094
aF0.2031
aF0.5781
aF0.2344
aF0.5
aF0.2656
aF0.5469
aF0.2344
aF0.5781
aF0.25
aF0.6562
aF0.2188
aF0.5469
aF0.25
aF0.5625
aF0.2188
aF0.4844
aF0.2812
aF0.5625
aF0.2969
aF0.4844
aF0.2656
aF0.5625
aF0.1719
aF0.4688
aF0.3906
aF0.4844
aF0.2969
aF0.5156
aF0.2812
aF0.5469
aF0.1719
aF0.4531
aF0.3281
aF0.4688
aF0.2344
aF0.5156
aF0.2344
aF0.5
aF0.2812
aF0.5625
aF0.3281
aF0.625
aF0.2812
aF0.5625
aF0.2812
aF0.4844
aF0.3906
aF0.5469
aF0.25
aF0.5312
aF0.1406
aF0.5312
aF0.3281
aF0.5312
aF0.2344
aF0.5938
aF0.2031
aF0.4688
aF0.25
aF0.5156
aF0.2188
aF0.5312
aF0.2031
aF0.5781
aF0.2031
aF0.5469
aF0.2344
aF0.5938
aF0.2031
aF0.5156
aF0.25
aF0.4844
aF0.2188
aF0.5781
aF0.2812
aF0.5156
aF0.125
aF0.5938
aF0.1875
aF0.625
aF0.2812
aF0.625
aF0.25
aF0.5
aF0.2812
aF0.5781
aF0.25
aF0.5
aF0.2656
aF0.4375
aF0.2344
aF0.4688
aF0.2188
aF0.5312
aF0.2969
aF0.5
aF0.2344
aF0.5
aF0.3438
aF0.5938
aF0.1719
aF0.5781
aF0.2031
aF0.5312
aF0.1875
aF0.4844
aF0.2188
aF0.5469
aF0.2812
aF0.625
aF0.1875
aF0.5625
aF0.2969
aF0.5625
aF0.2969
aF0.5625
aF0.2031
aF0.5625
aF0.2656
aF0.5312
aF0.2344
aF0.5625
aF0.25
aF0.5469
aF0.25
aF0.5312
aF0.1875
aF0.5156
aF0.2656
aF0.5469
aF0.2656
aF0.4531
aF0.2812
aF0.5156
aF0.2812
aF0.4844
aF0.2656
aF0.625
aF0.3125
aF0.5156
aF0.1562
aF0.5156
aF0.2969
aF0.5
aF0.25
aF0.5781
aF0.2344
aF0.4375
aF0.3125
aF0.5156
aF0.2656
aF0.5312
aF0.2188
aF0.4688
aF0.1406
aF0.6562
aF0.3125
aF0.5938
aF0.2969
aF0.5
aF0.3125
aF0.5938
aF0.2969
aF0.5625
aF0.2188
aF0.5156
aF0.2656
aF0.4375
aF0.3125
aF0.5312
aF0.375
aF0.5
aF0.2188
aF0.5
aF0.2031
aF0.5625
aF0.3438
aF0.625
aF0.1562
aF0.4375
aF0.2969
aF0.4688
aF0.2969
aF0.5312
aF0.25
aF0.6562
aF0.25
aF0.6875
aF0.1719
aF0.5312
aF0.2188
aF0.6406
aF0.3438
aF0.4688
aF0.3438
aF0.4531
aF0.2031
aF0.4531
aF0.2344
aF0.5156
aF0.2812
aF0.5156
aF0.2344
aF0.5
aF0.3125
aF0.5625
aF0.25
aF0.5
aF0.1875
aF0.5625
aF0.2656
aF0.5469
aF0.2031
aF0.4062
aF0.2969
aF0.625
aF0.25
aF0.5312
aF0.3281
aF0.5469
aF0.2188
aF0.5625
aF0.2031
aF0.5625
aF0.3125
aF0.4844
aF0.2188
aF0.5312
aF0.2812
aF0.5938
aF0.25
aF0.4688
aF0.1719
aF0.5469
aF0.2344
aF0.5312
aF0.2188
aF0.5156
aF0.2031
aF0.5312
aF0.2344
aF0.4688
aF0.2656
aF0.5312
aF0.2656
aF0.4844
aF0.2969
aF0.4688
aF0.2969
aF0.5312
aF0.2344
aF0.5781
aF0.2656
aF0.5781
aF0.2969
aF0.4688
aF0.2969
aF0.5
aF0.2656
aF0.5
aF0.2188
aF0.5156
aF0.1562
aF0.5938
aF0.1562
aF0.5781
aF0.3438
aF0.5625
aF0.2969
aF0.4844
aF0.1719
aF0.5469
aF0.3281
aF0.4688
aF0.2344
aF0.5312
aF0.2188
aF0.5
aF0.2969
aF0.4688
aF0.2969
aF0.5156
aF0.2656
aF0.5469
aF0.3438
aF0.4375
aF0.1719
aF0.5625
aF0.2656
aF0.5781
aF0.25
aF0.5156
aF0.2656
aF0.4844
aF0.25
aF0.5156
aF0.2188
aF0.5625
aF0.3438
aF0.5469
aF0.3438
aF0.4531
aF0.2188
aF0.5
aF0.2812
aF0.5
aF0.25
aF0.5938
aF0.1875
aF0.5625
aF0.2969
aF0.5469
aF0.2188
aF0.5938
aF0.2188
aF0.4844
aF0.2812
aF0.5312
aF0.1562
aF0.5156
aF0.2344
aF0.5469
aF0.1719
aF0.5469
aF0.2656
aF0.5312
aF0.3281
aF0.5156
aF0.2188
aF0.5156
aF0.1875
aF0.5312
aF0.2188
aF0.5781
aF0.1562
aF0.5156
asS'45.5'
p55
(lp56
F0.0469
aF0.0469
aF0.0156
aF0.0156
aF0.0625
aF0.0
aF0.0469
aF0.0469
aF0.0312
aF0.0156
aF0.0312
aF0.0156
aF0.0469
aF0.0312
aF0.0469
aF0.0
aF0.0312
aF0.0469
aF0.0469
aF0.0312
aF0.0156
aF0.0156
aF0.0312
aF0.0312
aF0.0
aF0.0625
aF0.0469
aF0.0156
aF0.0469
aF0.0312
aF0.0469
aF0.0
aF0.0156
aF0.0625
aF0.0312
aF0.0156
aF0.0625
aF0.0312
aF0.0312
aF0.0156
aF0.0312
aF0.0625
aF0.0469
aF0.0156
aF0.0312
aF0.0469
aF0.0156
aF0.0156
aF0.0469
aF0.0469
aF0.0312
aF0.0312
aF0.0469
aF0.0312
aF0.0312
aF0.0312
aF0.0312
aF0.0469
aF0.0469
aF0.0469
aF0.0312
aF0.0625
aF0.0469
aF0.0312
aF0.0469
aF0.0469
aF0.0312
aF0.0312
aF0.0312
aF0.0156
aF0.0156
aF0.0469
aF0.0312
aF0.0
aF0.0312
aF0.0156
aF0.0156
aF0.0312
aF0.0156
aF0.0312
aF0.0
aF0.0312
aF0.0312
aF0.0156
aF0.0469
aF0.0156
aF0.0156
aF0.0469
aF0.0312
aF0.0156
aF0.0469
aF0.0
aF0.0312
aF0.0156
aF0.0469
aF0.0625
aF0.0312
aF0.0312
aF0.0156
aF0.0312
aF0.0312
aF0.0469
aF0.0469
aF0.0312
aF0.0312
aF0.0156
aF0.0312
aF0.0312
aF0.1094
aF0.0312
aF0.0156
aF0.0469
aF0.0469
aF0.0625
aF0.0469
aF0.0312
aF0.0312
aF0.0156
aF0.0469
aF0.0469
aF0.0469
aF0.0312
aF0.0312
aF0.0469
aF0.0156
aF0.0312
aF0.0469
aF0.0469
aF0.0312
aF0.0156
aF0.0469
aF0.0312
aF0.0312
aF0.0156
aF0.0312
aF0.0469
aF0.0312
aF0.0312
aF0.0469
aF0.0469
aF0.0156
aF0.0469
aF0.0156
aF0.0156
aF0.0469
aF0.0
aF0.0625
aF0.0
aF0.0156
aF0.0156
aF0.0469
aF0.0469
aF0.0156
aF0.0312
aF0.0156
aF0.0469
aF0.0312
aF0.0312
aF0.0312
aF0.0156
aF0.0312
aF0.0469
aF0.0469
aF0.0469
aF0.0312
aF0.0312
aF0.0312
aF0.0312
aF0.0156
aF0.0
aF0.0312
aF0.0312
aF0.0156
aF0.0156
aF0.0312
aF0.0312
aF0.0312
aF0.0469
aF0.0469
aF0.0312
aF0.0469
aF0.0312
aF0.0312
aF0.0312
aF0.0
aF0.0469
aF0.0156
aF0.0312
aF0.0469
aF0.0156
aF0.0312
aF0.0156
aF0.0156
aF0.0469
aF0.0156
aF0.0469
aF0.0469
aF0.0156
aF0.0156
aF0.0312
aF0.0312
aF0.0312
aF0.0469
aF0.0156
aF0.0156
aF0.0156
aF0.0156
aF0.0156
aF0.0156
aF0.0
aF0.0469
aF0.0312
aF0.0469
aF0.0156
aF0.0312
aF0.0156
aF0.0
aF0.0625
aF0.0312
aF0.0312
aF0.0938
aF0.0156
aF0.0469
aF0.0156
aF0.0312
aF0.0625
aF0.0469
aF0.0469
aF0.0156
aF0.0469
aF0.0312
aF0.0781
aF0.0
aF0.0156
aF0.0156
aF0.0156
aF0.0625
aF0.0156
aF0.0469
aF0.0469
aF0.0
aF0.0156
aF0.0625
aF0.0625
aF0.125
aF0.0156
aF0.0312
aF0.0469
aF0.0469
aF0.0312
asS'164.5'
p57
(lp58
F0.3594
aF0.3594
aF0.3281
aF0.3125
aF0.4062
aF0.4219
aF0.2969
aF0.3906
aF0.2344
aF0.2344
aF0.3125
aF0.2656
aF0.3594
aF0.25
aF0.2656
aF0.2812
aF0.1875
aF0.2188
aF0.25
aF0.25
aF0.3125
aF0.3125
aF0.3281
aF0.4375
aF0.3906
aF0.3281
aF0.375
aF0.3438
aF0.2969
aF0.2812
aF0.4531
aF0.25
aF0.2656
aF0.2188
aF0.3594
aF0.2188
aF0.2656
aF0.2812
aF0.3438
aF0.3594
aF0.2656
aF0.3438
aF0.3594
aF0.2188
aF0.4219
aF0.1875
aF0.2656
aF0.2969
aF0.3906
aF0.2656
aF0.3438
aF0.2656
aF0.3438
aF0.2656
aF0.3906
aF0.3438
aF0.3125
aF0.375
aF0.25
aF0.2969
aF0.2344
aF0.3281
aF0.2969
aF0.4219
aF0.25
aF0.2344
aF0.4531
aF0.3594
aF0.375
aF0.2969
aF0.25
aF0.2812
aF0.3438
aF0.4375
aF0.3906
aF0.3594
aF0.3906
aF0.3281
aF0.2812
aF0.2812
aF0.4062
aF0.3594
aF0.2656
aF0.3594
aF0.3281
aF0.3438
aF0.3594
aF0.2656
aF0.3438
aF0.3125
aF0.2812
aF0.3594
aF0.2812
aF0.2812
aF0.2812
aF0.2812
aF0.3281
aF0.3438
aF0.3906
aF0.2656
aF0.2656
aF0.2656
aF0.3281
aF0.2656
aF0.3594
aF0.3125
aF0.2812
aF0.2188
aF0.2969
aF0.3438
aF0.2812
aF0.3438
aF0.2656
aF0.2812
aF0.3125
aF0.2969
aF0.4219
aF0.2031
aF0.3906
aF0.3906
aF0.2969
aF0.3438
aF0.3906
aF0.3125
aF0.2344
aF0.2969
aF0.25
aF0.2344
aF0.375
aF0.1875
aF0.2344
aF0.2656
aF0.25
aF0.3281
aF0.25
aF0.3281
aF0.3438
aF0.375
aF0.25
aF0.2656
aF0.3438
aF0.2969
aF0.2969
aF0.2031
aF0.375
aF0.3906
aF0.25
aF0.375
aF0.25
aF0.3438
aF0.3125
aF0.3281
aF0.2969
aF0.3125
aF0.2969
aF0.2656
aF0.3125
aF0.375
aF0.2812
aF0.3438
aF0.375
aF0.2656
aF0.25
aF0.25
aF0.2656
aF0.25
aF0.3438
aF0.3438
aF0.3281
aF0.3281
aF0.2969
aF0.2656
aF0.2188
aF0.2188
aF0.2969
aF0.375
aF0.2812
aF0.25
aF0.2969
aF0.25
aF0.2656
aF0.3906
aF0.3281
aF0.3438
aF0.3594
aF0.3906
aF0.3438
aF0.2812
aF0.2812
aF0.2344
aF0.3438
aF0.3281
aF0.3281
aF0.25
aF0.2344
aF0.2656
aF0.3438
aF0.375
aF0.2969
aF0.1562
aF0.2812
aF0.2656
aF0.2969
aF0.2656
aF0.2344
aF0.3125
aF0.375
aF0.2031
aF0.2969
aF0.2031
aF0.25
aF0.2031
aF0.2812
aF0.3125
aF0.3906
aF0.2031
aF0.2344
aF0.2969
aF0.2812
aF0.3125
aF0.2344
aF0.3281
aF0.1719
aF0.3594
aF0.2656
aF0.2969
aF0.2812
aF0.2969
aF0.2656
aF0.2656
aF0.25
aF0.2969
aF0.2031
aF0.3125
aF0.3281
aF0.3125
aF0.2188
aF0.25
aF0.4375
aF0.3125
aF0.3594
aF0.4219
aF0.3438
aF0.1875
aF0.3125
aF0.3281
aF0.3906
aF0.3125
aF0.3594
aF0.2969
asS'129.5'
p59
(lp60
F0.2031
aF0.1875
aF0.2031
aF0.2031
aF0.2344
aF0.1562
aF0.1406
aF0.1406
aF0.1406
aF0.1719
aF0.2656
aF0.1719
aF0.1562
aF0.2031
aF0.1562
aF0.2344
aF0.1562
aF0.1875
aF0.1875
aF0.1719
aF0.25
aF0.1094
aF0.2656
aF0.2188
aF0.1406
aF0.2812
aF0.1719
aF0.1719
aF0.125
aF0.2656
aF0.3438
aF0.1875
aF0.1875
aF0.1719
aF0.2344
aF0.1562
aF0.1094
aF0.2031
aF0.0938
aF0.1875
aF0.1406
aF0.2031
aF0.2188
aF0.2969
aF0.1562
aF0.1719
aF0.2656
aF0.1562
aF0.2969
aF0.1875
aF0.1562
aF0.1719
aF0.2031
aF0.1406
aF0.2188
aF0.2188
aF0.1875
aF0.1875
aF0.2031
aF0.1562
aF0.25
aF0.1562
aF0.2031
aF0.1719
aF0.25
aF0.2344
aF0.2812
aF0.2031
aF0.2031
aF0.2188
aF0.2344
aF0.2031
aF0.25
aF0.1719
aF0.1562
aF0.2188
aF0.25
aF0.1406
aF0.2344
aF0.1562
aF0.2031
aF0.0938
aF0.2031
aF0.2344
aF0.25
aF0.1875
aF0.2656
aF0.2188
aF0.1875
aF0.2656
aF0.2344
aF0.2344
aF0.1094
aF0.2344
aF0.1562
aF0.1719
aF0.125
aF0.2188
aF0.1562
aF0.2188
aF0.2031
aF0.1406
aF0.2031
aF0.1875
aF0.125
aF0.2344
aF0.1875
aF0.1719
aF0.1875
aF0.2344
aF0.25
aF0.1406
aF0.0938
aF0.1875
aF0.2656
aF0.2656
aF0.2344
aF0.2031
aF0.25
aF0.2031
aF0.25
aF0.2031
aF0.2344
aF0.2188
aF0.1719
aF0.1562
aF0.1719
aF0.25
aF0.125
aF0.1094
aF0.1094
aF0.1406
aF0.1562
aF0.1406
aF0.1875
aF0.1562
aF0.125
aF0.1875
aF0.2188
aF0.1875
aF0.1719
aF0.1562
aF0.25
aF0.2188
aF0.1719
aF0.2188
aF0.1406
aF0.2031
aF0.3438
aF0.1562
aF0.2188
aF0.2188
aF0.1719
aF0.1719
aF0.125
aF0.0938
aF0.2344
aF0.2969
aF0.2344
aF0.1875
aF0.1875
aF0.1875
aF0.1562
aF0.25
aF0.2812
aF0.125
aF0.1562
aF0.2031
aF0.2188
aF0.1562
aF0.1094
aF0.1875
aF0.1562
aF0.1719
aF0.1875
aF0.2031
aF0.2031
aF0.25
aF0.2812
aF0.125
aF0.25
aF0.2188
aF0.25
aF0.1562
aF0.2031
aF0.0938
aF0.2188
aF0.1719
aF0.1875
aF0.1719
aF0.2031
aF0.2344
aF0.2344
aF0.2344
aF0.2188
aF0.2344
aF0.2812
aF0.1875
aF0.1875
aF0.2188
aF0.2344
aF0.1562
aF0.2188
aF0.3125
aF0.125
aF0.125
aF0.2031
aF0.2656
aF0.1562
aF0.2031
aF0.2188
aF0.1719
aF0.2031
aF0.1719
aF0.2188
aF0.1406
aF0.2344
aF0.1562
aF0.25
aF0.125
aF0.3125
aF0.2188
aF0.1875
aF0.2344
aF0.125
aF0.2031
aF0.2656
aF0.1406
aF0.1406
aF0.2031
aF0.2812
aF0.2031
aF0.2031
aF0.0938
aF0.2344
aF0.1562
aF0.0938
aF0.1875
aF0.25
aF0.2031
aF0.1562
aF0.3438
aF0.1875
aF0.2188
aF0.1719
aF0.3281
aF0.2656
aF0.1562
aF0.2031
aF0.2031
asS'157.5'
p61
(lp62
F0.375
aF0.3594
aF0.2969
aF0.3438
aF0.2812
aF0.4844
aF0.4375
aF0.4062
aF0.4062
aF0.2188
aF0.3594
aF0.3438
aF0.6094
aF0.3125
aF0.2812
aF0.3438
aF0.3438
aF0.4062
aF0.4531
aF0.375
aF0.4062
aF0.2969
aF0.3438
aF0.4375
aF0.5156
aF0.3594
aF0.2969
aF0.2656
aF0.2969
aF0.2812
aF0.4219
aF0.3281
aF0.3438
aF0.3906
aF0.3594
aF0.375
aF0.25
aF0.4688
aF0.2812
aF0.4062
aF0.2812
aF0.4219
aF0.4219
aF0.3281
aF0.2969
aF0.375
aF0.4219
aF0.375
aF0.375
aF0.2969
aF0.375
aF0.4375
aF0.4219
aF0.3594
aF0.3438
aF0.3906
aF0.3594
aF0.4219
aF0.3438
aF0.3438
aF0.4219
aF0.3438
aF0.4688
aF0.375
aF0.4062
aF0.4062
aF0.4062
aF0.3906
aF0.375
aF0.2812
aF0.5156
aF0.4844
aF0.3906
aF0.3438
aF0.4375
aF0.375
aF0.3906
aF0.4531
aF0.3438
aF0.375
aF0.3438
aF0.4062
aF0.375
aF0.3906
aF0.4688
aF0.2656
aF0.3594
aF0.3438
aF0.3125
aF0.4219
aF0.3125
aF0.4062
aF0.375
aF0.2969
aF0.3594
aF0.3906
aF0.3906
aF0.2969
aF0.2812
aF0.3438
aF0.375
aF0.3906
aF0.2656
aF0.2812
aF0.4062
aF0.5625
aF0.3281
aF0.375
aF0.3281
aF0.4219
aF0.4219
aF0.2969
aF0.4531
aF0.3438
aF0.2969
aF0.375
aF0.2812
aF0.375
aF0.4531
aF0.375
aF0.375
aF0.3594
aF0.3125
aF0.3125
aF0.3438
aF0.4844
aF0.3125
aF0.3438
aF0.3594
aF0.3281
aF0.3281
aF0.4219
aF0.3281
aF0.3906
aF0.3594
aF0.4062
aF0.375
aF0.4219
aF0.4219
aF0.3438
aF0.2812
aF0.3438
aF0.3906
aF0.4062
aF0.3594
aF0.375
aF0.4375
aF0.4062
aF0.3594
aF0.3125
aF0.3906
aF0.3906
aF0.4062
aF0.2969
aF0.375
aF0.3281
aF0.3125
aF0.5
aF0.4531
aF0.4062
aF0.4062
aF0.3438
aF0.3281
aF0.3906
aF0.375
aF0.5156
aF0.4531
aF0.3281
aF0.3125
aF0.3594
aF0.4375
aF0.3281
aF0.4219
aF0.2969
aF0.3125
aF0.375
aF0.3594
aF0.4531
aF0.4375
aF0.4062
aF0.3906
aF0.375
aF0.4375
aF0.375
aF0.3906
aF0.4531
aF0.375
aF0.3438
aF0.4375
aF0.3438
aF0.3594
aF0.4062
aF0.3125
aF0.3125
aF0.3125
aF0.4062
aF0.3594
aF0.4844
aF0.375
aF0.3594
aF0.4375
aF0.4531
aF0.4062
aF0.3594
aF0.2969
aF0.3906
aF0.3594
aF0.3594
aF0.3438
aF0.375
aF0.375
aF0.3125
aF0.375
aF0.4844
aF0.4219
aF0.3906
aF0.4062
aF0.3594
aF0.4531
aF0.3438
aF0.3906
aF0.3281
aF0.4531
aF0.3438
aF0.3125
aF0.3125
aF0.3438
aF0.3125
aF0.4062
aF0.2812
aF0.2656
aF0.4531
aF0.375
aF0.4531
aF0.4219
aF0.4531
aF0.3594
aF0.4375
aF0.3906
aF0.4844
aF0.2969
aF0.375
aF0.2969
aF0.375
aF0.375
aF0.375
aF0.2969
aF0.3906
aF0.3281
aF0.3906
asS'91.0'
p63
(lp64
F0.0625
aF0.1094
aF0.1562
aF0.1406
aF0.125
aF0.125
aF0.0938
aF0.1562
aF0.1719
aF0.2031
aF0.1406
aF0.1562
aF0.0781
aF0.1719
aF0.0625
aF0.125
aF0.0938
aF0.125
aF0.1875
aF0.1719
aF0.0781
aF0.0625
aF0.1406
aF0.0781
aF0.125
aF0.2031
aF0.125
aF0.0469
aF0.1406
aF0.1406
aF0.125
aF0.0625
aF0.2188
aF0.1875
aF0.0781
aF0.1094
aF0.125
aF0.1094
aF0.0781
aF0.0312
aF0.125
aF0.2031
aF0.0312
aF0.0469
aF0.1562
aF0.1094
aF0.1719
aF0.2188
aF0.1094
aF0.1719
aF0.1562
aF0.1719
aF0.1719
aF0.1562
aF0.2344
aF0.1406
aF0.0938
aF0.0469
aF0.1094
aF0.2188
aF0.1406
aF0.0938
aF0.1875
aF0.125
aF0.2344
aF0.2188
aF0.1406
aF0.0938
aF0.0469
aF0.0469
aF0.1094
aF0.1562
aF0.0781
aF0.0938
aF0.0625
aF0.1562
aF0.2031
aF0.0938
aF0.1562
aF0.0781
aF0.0938
aF0.1562
aF0.2188
aF0.1094
aF0.0781
aF0.1875
aF0.0469
aF0.0625
aF0.1562
aF0.1406
aF0.0625
aF0.2344
aF0.1094
aF0.1875
aF0.0469
aF0.1562
aF0.125
aF0.1094
aF0.0781
aF0.1875
aF0.125
aF0.125
aF0.1562
aF0.1562
aF0.0312
aF0.1094
aF0.1875
aF0.0469
aF0.0938
aF0.125
aF0.125
aF0.0938
aF0.0469
aF0.1094
aF0.1406
aF0.125
aF0.1094
aF0.1094
aF0.2188
aF0.1094
aF0.0625
aF0.1094
aF0.125
aF0.1094
aF0.2344
aF0.1094
aF0.1875
aF0.125
aF0.0625
aF0.1719
aF0.1875
aF0.125
aF0.2188
aF0.125
aF0.1406
aF0.0938
aF0.1094
aF0.0938
aF0.2031
aF0.1406
aF0.1094
aF0.1406
aF0.0938
aF0.0938
aF0.1406
aF0.0625
aF0.125
aF0.1094
aF0.0938
aF0.1719
aF0.0938
aF0.1094
aF0.1406
aF0.0781
aF0.0938
aF0.2031
aF0.1406
aF0.0938
aF0.0469
aF0.1406
aF0.125
aF0.0469
aF0.1719
aF0.1094
aF0.1094
aF0.1406
aF0.1562
aF0.0781
aF0.0312
aF0.0469
aF0.0781
aF0.1094
aF0.0781
aF0.1406
aF0.1406
aF0.1406
aF0.0469
aF0.1094
aF0.2031
aF0.0625
aF0.0938
aF0.0938
aF0.1406
aF0.0938
aF0.2188
aF0.1406
aF0.2188
aF0.0469
aF0.125
aF0.2031
aF0.1562
aF0.0781
aF0.1094
aF0.1562
aF0.0938
aF0.1719
aF0.1562
aF0.0781
aF0.0469
aF0.1406
aF0.1094
aF0.125
aF0.0938
aF0.0938
aF0.0938
aF0.2344
aF0.0625
aF0.1406
aF0.1094
aF0.2344
aF0.25
aF0.0938
aF0.125
aF0.1562
aF0.1406
aF0.1562
aF0.1719
aF0.1875
aF0.2031
aF0.0469
aF0.125
aF0.1406
aF0.2344
aF0.1094
aF0.1562
aF0.1094
aF0.2031
aF0.1562
aF0.125
aF0.125
aF0.1406
aF0.0781
aF0.1406
aF0.1094
aF0.0938
aF0.2031
aF0.1875
aF0.1406
aF0.1094
aF0.1406
aF0.0781
aF0.1406
aF0.0938
aF0.1719
aF0.0781
aF0.1094
aF0.0625
aF0.1094
aF0.1406
aF0.1094
asS'42.0'
p65
(lp66
F0.0156
aF0.0156
aF0.0156
aF0.0469
aF0.0156
aF0.0156
aF0.0156
aF0.0312
aF0.0469
aF0.0
aF0.0312
aF0.0312
aF0.0312
aF0.0156
aF0.0
aF0.0156
aF0.0156
aF0.0156
aF0.0312
aF0.0312
aF0.1562
aF0.0156
aF0.0
aF0.0156
aF0.0312
aF0.0156
aF0.0312
aF0.0156
aF0.0156
aF0.0156
aF0.0312
aF0.0469
aF0.0156
aF0.0
aF0.0156
aF0.0156
aF0.0312
aF0.0312
aF0.0312
aF0.0312
aF0.0
aF0.0
aF0.0156
aF0.0
aF0.0156
aF0.0469
aF0.0469
aF0.0312
aF0.0312
aF0.0156
aF0.0156
aF0.0312
aF0.0469
aF0.0312
aF0.0312
aF0.0469
aF0.0156
aF0.0312
aF0.0156
aF0.0469
aF0.0156
aF0.0156
aF0.0312
aF0.0469
aF0.0312
aF0.0312
aF0.0312
aF0.0
aF0.0312
aF0.0156
aF0.0312
aF0.0
aF0.0
aF0.0312
aF0.0312
aF0.0156
aF0.0156
aF0.0312
aF0.0469
aF0.0156
aF0.0156
aF0.0469
aF0.0312
aF0.0
aF0.0469
aF0.0469
aF0.0312
aF0.0
aF0.0156
aF0.0156
aF0.0312
aF0.0312
aF0.0156
aF0.0312
aF0.0156
aF0.0156
aF0.0
aF0.0312
aF0.0469
aF0.0156
aF0.0156
aF0.0156
aF0.0469
aF0.0469
aF0.0312
aF0.0312
aF0.0156
aF0.0312
aF0.0469
aF0.0469
aF0.0312
aF0.0312
aF0.0312
aF0.0156
aF0.0469
aF0.0156
aF0.0156
aF0.0156
aF0.0
aF0.0312
aF0.0312
aF0.0469
aF0.0
aF0.0156
aF0.0312
aF0.0156
aF0.0312
aF0.0781
aF0.0312
aF0.0
aF0.0
aF0.0312
aF0.0156
aF0.0156
aF0.0156
aF0.0
aF0.0312
aF0.0156
aF0.0
aF0.0312
aF0.0
aF0.0312
aF0.1562
aF0.0156
aF0.0156
aF0.0156
aF0.0312
aF0.0469
aF0.0312
aF0.0
aF0.0156
aF0.0156
aF0.0
aF0.0469
aF0.0
aF0.0469
aF0.0156
aF0.0312
aF0.0312
aF0.0156
aF0.0156
aF0.0156
aF0.0156
aF0.0312
aF0.0312
aF0.0156
aF0.0469
aF0.0
aF0.0469
aF0.0156
aF0.0156
aF0.0156
aF0.0469
aF0.0156
aF0.0156
aF0.0156
aF0.0469
aF0.0
aF0.0312
aF0.0312
aF0.0
aF0.0156
aF0.1406
aF0.0156
aF0.0312
aF0.0
aF0.0469
aF0.0
aF0.0156
aF0.0469
aF0.0469
aF0.0312
aF0.0156
aF0.0156
aF0.0
aF0.1094
aF0.0
aF0.0156
aF0.0156
aF0.0469
aF0.0312
aF0.0156
aF0.0312
aF0.0156
aF0.0
aF0.0156
aF0.0156
aF0.0312
aF0.0312
aF0.1562
aF0.0156
aF0.0469
aF0.0312
aF0.0469
aF0.0312
aF0.0156
aF0.0469
aF0.0156
aF0.0156
aF0.0312
aF0.0156
aF0.0312
aF0.0156
aF0.0312
aF0.0156
aF0.0312
aF0.0156
aF0.0312
aF0.0156
aF0.0156
aF0.0156
aF0.0312
aF0.0156
aF0.0469
aF0.0156
aF0.0312
aF0.0156
aF0.0156
aF0.0469
aF0.0156
aF0.0312
aF0.0
aF0.0156
aF0.0156
aF0.0469
aF0.0156
aF0.0312
aF0.0312
aF0.0312
aF0.0469
asS'84.0'
p67
(lp68
F0.125
aF0.0469
aF0.125
aF0.125
aF0.1719
aF0.1719
aF0.1562
aF0.1562
aF0.0781
aF0.1719
aF0.0781
aF0.1719
aF0.0625
aF0.1094
aF0.2188
aF0.1562
aF0.125
aF0.1562
aF0.1719
aF0.1875
aF0.2031
aF0.1406
aF0.0938
aF0.125
aF0.0625
aF0.1562
aF0.25
aF0.0781
aF0.1406
aF0.0469
aF0.0781
aF0.125
aF0.2344
aF0.125
aF0.0938
aF0.0781
aF0.1094
aF0.0938
aF0.1562
aF0.1875
aF0.125
aF0.0781
aF0.1094
aF0.1094
aF0.0781
aF0.25
aF0.1719
aF0.1406
aF0.1406
aF0.1719
aF0.1094
aF0.1406
aF0.2188
aF0.0781
aF0.0938
aF0.1719
aF0.0469
aF0.125
aF0.1094
aF0.0938
aF0.2031
aF0.1094
aF0.2031
aF0.1406
aF0.0469
aF0.125
aF0.1719
aF0.1562
aF0.0781
aF0.0938
aF0.1094
aF0.0625
aF0.1094
aF0.1094
aF0.1562
aF0.0469
aF0.0938
aF0.1406
aF0.2031
aF0.1562
aF0.1406
aF0.125
aF0.1406
aF0.0625
aF0.125
aF0.2969
aF0.2344
aF0.0938
aF0.2031
aF0.0938
aF0.1094
aF0.1719
aF0.0938
aF0.0781
aF0.0781
aF0.1406
aF0.1094
aF0.1094
aF0.2188
aF0.0469
aF0.1406
aF0.0781
aF0.2656
aF0.2031
aF0.0625
aF0.125
aF0.0156
aF0.1094
aF0.2031
aF0.125
aF0.0938
aF0.1875
aF0.1094
aF0.125
aF0.125
aF0.0625
aF0.0938
aF0.0781
aF0.1719
aF0.0938
aF0.0469
aF0.0469
aF0.1406
aF0.125
aF0.1719
aF0.2344
aF0.125
aF0.1094
aF0.1562
aF0.0781
aF0.1875
aF0.0625
aF0.125
aF0.1875
aF0.125
aF0.0625
aF0.125
aF0.0469
aF0.0938
aF0.125
aF0.0938
aF0.0938
aF0.1875
aF0.1719
aF0.0938
aF0.125
aF0.1094
aF0.1562
aF0.2188
aF0.0625
aF0.2344
aF0.0625
aF0.2188
aF0.1562
aF0.1562
aF0.0938
aF0.1406
aF0.1406
aF0.0781
aF0.0938
aF0.1406
aF0.0781
aF0.1094
aF0.125
aF0.2188
aF0.1562
aF0.2031
aF0.1406
aF0.125
aF0.1562
aF0.0625
aF0.1562
aF0.25
aF0.1406
aF0.0625
aF0.2031
aF0.0938
aF0.0625
aF0.25
aF0.1875
aF0.1406
aF0.1094
aF0.2031
aF0.1094
aF0.0469
aF0.0938
aF0.0625
aF0.2031
aF0.2344
aF0.0469
aF0.1562
aF0.1094
aF0.0938
aF0.0781
aF0.1406
aF0.2031
aF0.0938
aF0.1875
aF0.1406
aF0.1719
aF0.2656
aF0.0781
aF0.0781
aF0.0781
aF0.1875
aF0.125
aF0.1875
aF0.125
aF0.1094
aF0.1094
aF0.125
aF0.1094
aF0.0938
aF0.125
aF0.0938
aF0.125
aF0.0625
aF0.1094
aF0.1094
aF0.1406
aF0.1719
aF0.1562
aF0.1562
aF0.1562
aF0.2031
aF0.1875
aF0.1562
aF0.1406
aF0.2656
aF0.0469
aF0.1406
aF0.0781
aF0.1562
aF0.1094
aF0.1562
aF0.1562
aF0.1406
aF0.125
aF0.1094
aF0.0938
aF0.1094
aF0.1406
aF0.125
aF0.0781
aF0.125
aF0.125
aF0.125
aF0.1094
aF0.1094
aF0.0469
asS'63.0'
p69
(lp70
F0.0781
aF0.0938
aF0.0938
aF0.0469
aF0.0781
aF0.0781
aF0.0938
aF0.0781
aF0.0312
aF0.0469
aF0.0469
aF0.0625
aF0.0625
aF0.0781
aF0.0625
aF0.0625
aF0.0781
aF0.0469
aF0.0312
aF0.0781
aF0.0625
aF0.0469
aF0.0469
aF0.0938
aF0.0625
aF0.0781
aF0.0938
aF0.0625
aF0.0938
aF0.0469
aF0.0469
aF0.0625
aF0.1094
aF0.0469
aF0.0781
aF0.0781
aF0.1094
aF0.0469
aF0.0781
aF0.0781
aF0.0781
aF0.0938
aF0.0469
aF0.0938
aF0.0781
aF0.0625
aF0.0625
aF0.0469
aF0.0781
aF0.0469
aF0.0312
aF0.0156
aF0.0781
aF0.0469
aF0.0938
aF0.0469
aF0.0625
aF0.0312
aF0.0156
aF0.0781
aF0.0938
aF0.0156
aF0.0312
aF0.0781
aF0.0312
aF0.0781
aF0.0625
aF0.0469
aF0.0781
aF0.0469
aF0.0781
aF0.0625
aF0.0312
aF0.0625
aF0.0312
aF0.0625
aF0.0312
aF0.0625
aF0.0469
aF0.0312
aF0.0938
aF0.0469
aF0.0781
aF0.0312
aF0.0781
aF0.0781
aF0.0625
aF0.0938
aF0.0
aF0.0625
aF0.0781
aF0.0625
aF0.0625
aF0.0469
aF0.0781
aF0.0469
aF0.0938
aF0.0469
aF0.0625
aF0.0625
aF0.0938
aF0.0781
aF0.0781
aF0.0938
aF0.0312
aF0.0625
aF0.0625
aF0.0625
aF0.0625
aF0.0469
aF0.0469
aF0.0312
aF0.0469
aF0.0469
aF0.0625
aF0.0781
aF0.0312
aF0.0625
aF0.0469
aF0.0781
aF0.0469
aF0.0625
aF0.0781
aF0.0938
aF0.0938
aF0.0469
aF0.0312
aF0.0781
aF0.0781
aF0.0312
aF0.0938
aF0.0469
aF0.0469
aF0.0781
aF0.0469
aF0.0312
aF0.0781
aF0.1094
aF0.0625
aF0.0625
aF0.0469
aF0.0312
aF0.0781
aF0.0625
aF0.0781
aF0.0625
aF0.0625
aF0.0938
aF0.0781
aF0.0625
aF0.0781
aF0.0625
aF0.0625
aF0.0469
aF0.0625
aF0.0469
aF0.0781
aF0.0312
aF0.0312
aF0.0781
aF0.0312
aF0.0625
aF0.0938
aF0.0781
aF0.0625
aF0.0156
aF0.0625
aF0.0625
aF0.125
aF0.0625
aF0.0625
aF0.0469
aF0.0469
aF0.0781
aF0.0625
aF0.0469
aF0.0625
aF0.0312
aF0.0469
aF0.0469
aF0.0781
aF0.0625
aF0.0781
aF0.0938
aF0.0312
aF0.0156
aF0.0625
aF0.0312
aF0.0781
aF0.0625
aF0.0938
aF0.0625
aF0.0625
aF0.0625
aF0.0469
aF0.0469
aF0.0781
aF0.0469
aF0.0
aF0.0625
aF0.0625
aF0.0469
aF0.0781
aF0.0938
aF0.0625
aF0.0938
aF0.0625
aF0.0469
aF0.1094
aF0.0469
aF0.0781
aF0.0781
aF0.0469
aF0.0469
aF0.0469
aF0.0625
aF0.0469
aF0.0781
aF0.0312
aF0.0625
aF0.0469
aF0.0469
aF0.0625
aF0.0469
aF0.0781
aF0.0781
aF0.0781
aF0.0469
aF0.0625
aF0.0781
aF0.0469
aF0.0469
aF0.0625
aF0.1094
aF0.0312
aF0.0625
aF0.0781
aF0.0625
aF0.0625
aF0.0469
aF0.0469
aF0.0625
aF0.0781
aF0.0625
aF0.0469
aF0.0938
aF0.0781
aF0.0312
aF0.0469
aF0.0312
asS'59.5'
p71
(lp72
F0.0625
aF0.0469
aF0.0625
aF0.0625
aF0.0156
aF0.0312
aF0.0312
aF0.0469
aF0.0625
aF0.0781
aF0.0625
aF0.0312
aF0.0781
aF0.0625
aF0.0625
aF0.0312
aF0.0312
aF0.0312
aF0.0781
aF0.0312
aF0.0156
aF0.0156
aF0.0625
aF0.0312
aF0.0469
aF0.0156
aF0.0625
aF0.0312
aF0.0781
aF0.0625
aF0.0312
aF0.0469
aF0.0469
aF0.0625
aF0.0781
aF0.0312
aF0.0625
aF0.0469
aF0.0781
aF0.0781
aF0.0312
aF0.0625
aF0.0781
aF0.0469
aF0.0312
aF0.0625
aF0.0469
aF0.0469
aF0.0469
aF0.0469
aF0.0469
aF0.0781
aF0.0938
aF0.0625
aF0.0312
aF0.0469
aF0.0625
aF0.0469
aF0.0469
aF0.0625
aF0.0312
aF0.0781
aF0.0625
aF0.0156
aF0.0469
aF0.0312
aF0.0312
aF0.0469
aF0.0469
aF0.0469
aF0.0312
aF0.0625
aF0.0625
aF0.0469
aF0.0156
aF0.0312
aF0.0625
aF0.0312
aF0.0156
aF0.0469
aF0.0469
aF0.0156
aF0.0625
aF0.0625
aF0.0156
aF0.0312
aF0.0156
aF0.0312
aF0.0312
aF0.0625
aF0.0156
aF0.0469
aF0.0312
aF0.0469
aF0.0625
aF0.0312
aF0.0156
aF0.0156
aF0.0312
aF0.0938
aF0.0625
aF0.0625
aF0.0625
aF0.0156
aF0.0312
aF0.0312
aF0.0469
aF0.0469
aF0.0469
aF0.0469
aF0.0469
aF0.0938
aF0.0312
aF0.0625
aF0.0312
aF0.0312
aF0.0312
aF0.0469
aF0.0781
aF0.0312
aF0.0781
aF0.0312
aF0.0469
aF0.0312
aF0.0312
aF0.0469
aF0.0625
aF0.0156
aF0.0469
aF0.0781
aF0.0156
aF0.0
aF0.0469
aF0.0469
aF0.0625
aF0.0469
aF0.0625
aF0.0781
aF0.0156
aF0.0469
aF0.0469
aF0.0625
aF0.0781
aF0.0469
aF0.0469
aF0.0781
aF0.0312
aF0.0625
aF0.0156
aF0.0469
aF0.0312
aF0.0312
aF0.0469
aF0.0312
aF0.0625
aF0.0469
aF0.0469
aF0.0312
aF0.0312
aF0.0625
aF0.0156
aF0.0469
aF0.0469
aF0.0469
aF0.0625
aF0.0625
aF0.0312
aF0.0312
aF0.0156
aF0.0469
aF0.0781
aF0.0156
aF0.0469
aF0.0625
aF0.0156
aF0.0625
aF0.0469
aF0.0312
aF0.0469
aF0.0469
aF0.0312
aF0.0312
aF0.0312
aF0.0469
aF0.0625
aF0.0625
aF0.0469
aF0.0156
aF0.0156
aF0.0469
aF0.0469
aF0.0625
aF0.0469
aF0.0938
aF0.0312
aF0.0781
aF0.0625
aF0.0469
aF0.0312
aF0.0156
aF0.0156
aF0.0781
aF0.0312
aF0.0312
aF0.0469
aF0.0469
aF0.0156
aF0.0469
aF0.0781
aF0.0312
aF0.0469
aF0.0625
aF0.0469
aF0.1562
aF0.0469
aF0.0781
aF0.0625
aF0.0312
aF0.0625
aF0.0625
aF0.0781
aF0.0625
aF0.0781
aF0.0625
aF0.0469
aF0.0156
aF0.0469
aF0.0312
aF0.0312
aF0.0625
aF0.0312
aF0.0625
aF0.0469
aF0.0625
aF0.0312
aF0.0312
aF0.0625
aF0.0625
aF0.0625
aF0.0
aF0.0625
aF0.0625
aF0.0781
aF0.0312
aF0.0781
aF0.0625
aF0.0
aF0.0625
aF0.0781
aF0.0469
asS'87.5'
p73
(lp74
F0.0781
aF0.125
aF0.1875
aF0.0781
aF0.1094
aF0.0781
aF0.1094
aF0.1094
aF0.1406
aF0.2344
aF0.1875
aF0.1094
aF0.1562
aF0.1094
aF0.125
aF0.1875
aF0.1406
aF0.2031
aF0.1562
aF0.1875
aF0.0938
aF0.1562
aF0.0938
aF0.1875
aF0.1719
aF0.2031
aF0.0781
aF0.1094
aF0.1406
aF0.1094
aF0.1094
aF0.0938
aF0.0938
aF0.1406
aF0.0938
aF0.125
aF0.1094
aF0.1562
aF0.1562
aF0.1875
aF0.1719
aF0.0938
aF0.1094
aF0.1094
aF0.0938
aF0.1875
aF0.1719
aF0.1406
aF0.1094
aF0.25
aF0.1094
aF0.1875
aF0.1094
aF0.2344
aF0.1406
aF0.1406
aF0.0781
aF0.0781
aF0.1094
aF0.0938
aF0.1094
aF0.0938
aF0.1875
aF0.1875
aF0.1875
aF0.1094
aF0.0781
aF0.1406
aF0.125
aF0.125
aF0.1562
aF0.125
aF0.125
aF0.0
aF0.1094
aF0.0938
aF0.1094
aF0.125
aF0.1562
aF0.2031
aF0.1406
aF0.0469
aF0.0781
aF0.1406
aF0.0781
aF0.125
aF0.2344
aF0.0781
aF0.125
aF0.125
aF0.2188
aF0.1406
aF0.1406
aF0.0938
aF0.0781
aF0.0469
aF0.125
aF0.0781
aF0.0938
aF0.1094
aF0.1094
aF0.1562
aF0.0781
aF0.1875
aF0.0781
aF0.125
aF0.1719
aF0.1562
aF0.0781
aF0.1875
aF0.1094
aF0.0469
aF0.1719
aF0.1406
aF0.0469
aF0.125
aF0.2031
aF0.1562
aF0.0469
aF0.1875
aF0.1875
aF0.1094
aF0.1094
aF0.2031
aF0.1875
aF0.2188
aF0.0938
aF0.0625
aF0.1562
aF0.125
aF0.0938
aF0.0781
aF0.1406
aF0.1406
aF0.0781
aF0.1094
aF0.1094
aF0.125
aF0.0781
aF0.1719
aF0.1875
aF0.0938
aF0.2031
aF0.1094
aF0.1406
aF0.0938
aF0.1094
aF0.1562
aF0.1406
aF0.1406
aF0.1719
aF0.0781
aF0.1094
aF0.1406
aF0.1406
aF0.2031
aF0.1094
aF0.1875
aF0.0781
aF0.0625
aF0.1094
aF0.1094
aF0.1094
aF0.0938
aF0.0938
aF0.25
aF0.0781
aF0.1094
aF0.0781
aF0.1406
aF0.0625
aF0.0938
aF0.1719
aF0.1562
aF0.1562
aF0.1562
aF0.1094
aF0.1406
aF0.0625
aF0.0938
aF0.0938
aF0.125
aF0.1094
aF0.0938
aF0.1875
aF0.1875
aF0.1094
aF0.125
aF0.0938
aF0.0938
aF0.1406
aF0.0938
aF0.0781
aF0.125
aF0.2188
aF0.125
aF0.125
aF0.0625
aF0.1562
aF0.125
aF0.1406
aF0.125
aF0.0938
aF0.1562
aF0.1875
aF0.1562
aF0.0625
aF0.0625
aF0.0781
aF0.2031
aF0.1094
aF0.0938
aF0.0938
aF0.1562
aF0.1406
aF0.1406
aF0.1094
aF0.1406
aF0.0781
aF0.1719
aF0.1094
aF0.0938
aF0.1562
aF0.2031
aF0.0938
aF0.125
aF0.1094
aF0.1562
aF0.0781
aF0.1719
aF0.0938
aF0.0469
aF0.1094
aF0.125
aF0.1875
aF0.1719
aF0.0938
aF0.1406
aF0.1094
aF0.0469
aF0.1094
aF0.1094
aF0.0625
aF0.1875
aF0.0312
aF0.1406
aF0.125
aF0.125
aF0.0938
aF0.0625
asS'24.5'
p75
(lp76
F0.0
aF0.0
aF0.0156
aF0.0469
aF0.0156
aF0.0
aF0.0156
aF0.0156
aF0.0156
aF0.0156
aF0.0
aF0.0
aF0.0156
aF0.0
aF0.0156
aF0.0
aF0.0
aF0.0156
aF0.0156
aF0.0
aF0.0156
aF0.0156
aF0.0
aF0.0312
aF0.0156
aF0.0156
aF0.0
aF0.0156
aF0.0156
aF0.0
aF0.0625
aF0.0156
aF0.0
aF0.0469
aF0.0156
aF0.0156
aF0.0
aF0.0156
aF0.0156
aF0.0
aF0.0
aF0.0
aF0.0156
aF0.0156
aF0.0156
aF0.0156
aF0.0
aF0.0
aF0.0156
aF0.0625
aF0.0
aF0.0
aF0.0
aF0.0156
aF0.0156
aF0.0156
aF0.0156
aF0.0
aF0.0156
aF0.0
aF0.0
aF0.0
aF0.0
aF0.0
aF0.0156
aF0.0
aF0.0156
aF0.0
aF0.0
aF0.0156
aF0.0
aF0.0312
aF0.0
aF0.0
aF0.0156
aF0.0
aF0.0
aF0.0156
aF0.0156
aF0.0156
aF0.0156
aF0.0
aF0.0156
aF0.0156
aF0.0156
aF0.0
aF0.0
aF0.0
aF0.0156
aF0.0
aF0.0156
aF0.0
aF0.0156
aF0.0156
aF0.0312
aF0.0156
aF0.0156
aF0.0156
aF0.0156
aF0.0
aF0.0
aF0.0
aF0.0
aF0.0156
aF0.125
aF0.0156
aF0.0156
aF0.0
aF0.0
aF0.0
aF0.0156
aF0.0
aF0.0156
aF0.0
aF0.0
aF0.0156
aF0.0
aF0.0156
aF0.0156
aF0.0156
aF0.0
aF0.0
aF0.0156
aF0.0156
aF0.0156
aF0.0
aF0.0
aF0.0156
aF0.0156
aF0.0
aF0.0
aF0.0
aF0.0156
aF0.0156
aF0.0156
aF0.0
aF0.0
aF0.0156
aF0.0156
aF0.0
aF0.0
aF0.0156
aF0.0
aF0.0
aF0.0156
aF0.0156
aF0.0
aF0.0
aF0.0
aF0.0
aF0.0
aF0.0156
aF0.0156
aF0.0
aF0.0156
aF0.0
aF0.0
aF0.0
aF0.0
aF0.0
aF0.0156
aF0.0
aF0.0156
aF0.0
aF0.0
aF0.0156
aF0.0156
aF0.0
aF0.0156
aF0.0156
aF0.0156
aF0.0156
aF0.0156
aF0.0
aF0.0
aF0.0156
aF0.0156
aF0.0
aF0.0
aF0.0156
aF0.0156
aF0.0156
aF0.0156
aF0.0156
aF0.0
aF0.0
aF0.0156
aF0.0156
aF0.0312
aF0.0
aF0.0156
aF0.0156
aF0.0
aF0.0156
aF0.0156
aF0.0156
aF0.0
aF0.0
aF0.0156
aF0.0156
aF0.0
aF0.0
aF0.0
aF0.0156
aF0.0156
aF0.0156
aF0.0
aF0.0156
aF0.0156
aF0.0
aF0.0156
aF0.0156
aF0.0
aF0.0
aF0.0156
aF0.0
aF0.0
aF0.0156
aF0.0156
aF0.0
aF0.0156
aF0.0156
aF0.0156
aF0.0
aF0.0
aF0.0
aF0.0156
aF0.0
aF0.0
aF0.0156
aF0.0156
aF0.0
aF0.0
aF0.0
aF0.0156
aF0.0
aF0.0
aF0.0156
aF0.0
aF0.0156
aF0.0156
aF0.0156
aF0.0156
aF0.0156
aF0.0156
aF0.0
aF0.0
aF0.0156
aF0.0156
aF0.0
asS'108.5'
p77
(lp78
F0.2188
aF0.1094
aF0.2188
aF0.1094
aF0.1719
aF0.1562
aF0.1094
aF0.1094
aF0.2344
aF0.2031
aF0.2188
aF0.1562
aF0.1562
aF0.2812
aF0.1719
aF0.1719
aF0.2812
aF0.1094
aF0.1406
aF0.25
aF0.1406
aF0.3125
aF0.0625
aF0.1719
aF0.1562
aF0.125
aF0.1406
aF0.2188
aF0.1562
aF0.1719
aF0.1875
aF0.1719
aF0.1875
aF0.1406
aF0.1719
aF0.1719
aF0.25
aF0.1406
aF0.2188
aF0.125
aF0.125
aF0.0938
aF0.2188
aF0.1875
aF0.1875
aF0.2031
aF0.125
aF0.125
aF0.2031
aF0.1719
aF0.1562
aF0.1875
aF0.1406
aF0.1562
aF0.1406
aF0.2188
aF0.1562
aF0.1875
aF0.2969
aF0.1719
aF0.2344
aF0.0625
aF0.1094
aF0.2344
aF0.1562
aF0.1562
aF0.1875
aF0.1875
aF0.1562
aF0.1875
aF0.1406
aF0.25
aF0.2344
aF0.0469
aF0.1406
aF0.1094
aF0.2344
aF0.0938
aF0.3438
aF0.1875
aF0.25
aF0.1719
aF0.125
aF0.1406
aF0.1562
aF0.0625
aF0.0938
aF0.2188
aF0.1875
aF0.1875
aF0.1562
aF0.1562
aF0.1719
aF0.1094
aF0.1094
aF0.1875
aF0.2031
aF0.1719
aF0.1562
aF0.1875
aF0.1719
aF0.1719
aF0.0625
aF0.1875
aF0.2656
aF0.2656
aF0.1875
aF0.1094
aF0.2969
aF0.1875
aF0.2188
aF0.125
aF0.2188
aF0.2031
aF0.25
aF0.1719
aF0.2188
aF0.1562
aF0.1875
aF0.2031
aF0.1562
aF0.1875
aF0.1562
aF0.2344
aF0.125
aF0.2031
aF0.1875
aF0.125
aF0.1719
aF0.1719
aF0.1562
aF0.1094
aF0.2031
aF0.25
aF0.2344
aF0.1406
aF0.1094
aF0.0781
aF0.1719
aF0.1719
aF0.1094
aF0.1562
aF0.1094
aF0.1875
aF0.2031
aF0.1562
aF0.1562
aF0.1719
aF0.1094
aF0.1562
aF0.1406
aF0.2031
aF0.125
aF0.1406
aF0.125
aF0.0938
aF0.2188
aF0.1094
aF0.2031
aF0.1719
aF0.2188
aF0.0938
aF0.1562
aF0.2344
aF0.1406
aF0.2031
aF0.2031
aF0.1094
aF0.2812
aF0.1562
aF0.0938
aF0.1562
aF0.2344
aF0.125
aF0.25
aF0.2188
aF0.0938
aF0.1562
aF0.1719
aF0.125
aF0.3125
aF0.1562
aF0.1094
aF0.1875
aF0.1875
aF0.2031
aF0.1562
aF0.1875
aF0.1406
aF0.1875
aF0.0781
aF0.1406
aF0.1562
aF0.2344
aF0.1094
aF0.2344
aF0.1875
aF0.1406
aF0.2656
aF0.1406
aF0.1719
aF0.1875
aF0.0938
aF0.125
aF0.1719
aF0.1875
aF0.2188
aF0.2031
aF0.1875
aF0.1094
aF0.125
aF0.125
aF0.2031
aF0.2031
aF0.2188
aF0.2188
aF0.1719
aF0.1406
aF0.0469
aF0.0938
aF0.1406
aF0.1406
aF0.0938
aF0.2344
aF0.2656
aF0.0625
aF0.1719
aF0.2031
aF0.2031
aF0.1875
aF0.1562
aF0.1406
aF0.1875
aF0.1875
aF0.3281
aF0.1562
aF0.0938
aF0.2656
aF0.0781
aF0.1094
aF0.2031
aF0.2344
aF0.1719
aF0.1406
aF0.1562
aF0.2031
aF0.2188
aF0.2031
aF0.1875
aF0.1406
asS'119.0'
p79
(lp80
F0.0625
aF0.1875
aF0.2031
aF0.1719
aF0.2344
aF0.2188
aF0.1562
aF0.1562
aF0.1719
aF0.1406
aF0.1875
aF0.2344
aF0.2031
aF0.0938
aF0.1562
aF0.125
aF0.1719
aF0.1875
aF0.2031
aF0.1562
aF0.2969
aF0.1875
aF0.2188
aF0.0781
aF0.1562
aF0.2031
aF0.1875
aF0.2031
aF0.2188
aF0.125
aF0.0938
aF0.25
aF0.1875
aF0.1719
aF0.125
aF0.1562
aF0.125
aF0.25
aF0.2031
aF0.25
aF0.2031
aF0.1094
aF0.1094
aF0.1719
aF0.1094
aF0.1094
aF0.1406
aF0.1094
aF0.1875
aF0.2344
aF0.2656
aF0.1719
aF0.2969
aF0.0781
aF0.125
aF0.0938
aF0.1875
aF0.1406
aF0.1875
aF0.2031
aF0.1719
aF0.2188
aF0.2812
aF0.2812
aF0.2656
aF0.2188
aF0.1094
aF0.2188
aF0.2344
aF0.2188
aF0.1719
aF0.1875
aF0.25
aF0.2188
aF0.0781
aF0.1875
aF0.1719
aF0.0469
aF0.1875
aF0.2656
aF0.1875
aF0.3594
aF0.1562
aF0.125
aF0.1094
aF0.2031
aF0.0781
aF0.0938
aF0.1406
aF0.1875
aF0.1875
aF0.2344
aF0.1875
aF0.125
aF0.2344
aF0.1406
aF0.0938
aF0.1562
aF0.1094
aF0.1875
aF0.0625
aF0.25
aF0.1875
aF0.125
aF0.2188
aF0.1406
aF0.1875
aF0.1094
aF0.1406
aF0.1719
aF0.0938
aF0.125
aF0.2656
aF0.1406
aF0.1406
aF0.1562
aF0.1406
aF0.0781
aF0.1562
aF0.1719
aF0.1562
aF0.125
aF0.125
aF0.1719
aF0.1562
aF0.2031
aF0.1562
aF0.1875
aF0.2188
aF0.2656
aF0.1562
aF0.1719
aF0.2969
aF0.2344
aF0.1875
aF0.25
aF0.2344
aF0.2031
aF0.1094
aF0.1719
aF0.2344
aF0.1562
aF0.1094
aF0.1406
aF0.1406
aF0.2188
aF0.2812
aF0.2188
aF0.125
aF0.1719
aF0.2969
aF0.1562
aF0.1719
aF0.1875
aF0.2344
aF0.2812
aF0.0938
aF0.1875
aF0.1875
aF0.0781
aF0.1719
aF0.1406
aF0.2031
aF0.1719
aF0.2969
aF0.0938
aF0.1406
aF0.1875
aF0.2031
aF0.2656
aF0.2188
aF0.1406
aF0.0938
aF0.2031
aF0.2031
aF0.25
aF0.2188
aF0.1094
aF0.1094
aF0.1875
aF0.1719
aF0.1875
aF0.125
aF0.125
aF0.1719
aF0.2031
aF0.2188
aF0.1719
aF0.2031
aF0.2969
aF0.1094
aF0.1875
aF0.2188
aF0.1094
aF0.25
aF0.1719
aF0.0781
aF0.1875
aF0.1406
aF0.1562
aF0.2188
aF0.1406
aF0.1875
aF0.0781
aF0.2188
aF0.1875
aF0.1406
aF0.2344
aF0.1094
aF0.1406
aF0.1406
aF0.1719
aF0.1875
aF0.1875
aF0.2031
aF0.0781
aF0.2188
aF0.2031
aF0.1875
aF0.25
aF0.2188
aF0.1875
aF0.1406
aF0.125
aF0.1875
aF0.1875
aF0.2031
aF0.1406
aF0.0938
aF0.125
aF0.1719
aF0.0625
aF0.1094
aF0.2031
aF0.2031
aF0.2031
aF0.2188
aF0.0938
aF0.1719
aF0.1719
aF0.1094
aF0.1562
aF0.1719
aF0.1406
aF0.125
aF0.1875
aF0.2344
aF0.1562
aF0.1719
aF0.1094
asS'133.0'
p81
(lp82
F0.1875
aF0.2344
aF0.2188
aF0.2344
aF0.1719
aF0.2031
aF0.2812
aF0.1719
aF0.2344
aF0.2031
aF0.2344
aF0.2188
aF0.2969
aF0.25
aF0.25
aF0.2656
aF0.1562
aF0.1719
aF0.25
aF0.3125
aF0.25
aF0.3281
aF0.2656
aF0.2969
aF0.2188
aF0.4219
aF0.2969
aF0.3281
aF0.25
aF0.2812
aF0.2188
aF0.2969
aF0.2188
aF0.25
aF0.2812
aF0.2812
aF0.2656
aF0.3906
aF0.1406
aF0.3281
aF0.1875
aF0.2812
aF0.1719
aF0.2656
aF0.2969
aF0.2812
aF0.2344
aF0.3125
aF0.25
aF0.2656
aF0.1875
aF0.1875
aF0.3906
aF0.2969
aF0.2656
aF0.25
aF0.1875
aF0.25
aF0.3594
aF0.2031
aF0.2188
aF0.2656
aF0.2031
aF0.25
aF0.2188
aF0.2656
aF0.2188
aF0.2656
aF0.2969
aF0.2812
aF0.2031
aF0.1719
aF0.2656
aF0.2969
aF0.2969
aF0.25
aF0.2812
aF0.2812
aF0.3438
aF0.3281
aF0.2031
aF0.3125
aF0.25
aF0.25
aF0.2344
aF0.2031
aF0.25
aF0.2969
aF0.3281
aF0.2344
aF0.2188
aF0.2969
aF0.25
aF0.2344
aF0.2812
aF0.3594
aF0.1875
aF0.2344
aF0.2656
aF0.2188
aF0.2344
aF0.1406
aF0.1875
aF0.2969
aF0.125
aF0.2031
aF0.2812
aF0.2656
aF0.3125
aF0.2031
aF0.25
aF0.2031
aF0.1719
aF0.3125
aF0.2344
aF0.1562
aF0.2031
aF0.2188
aF0.3125
aF0.3438
aF0.2344
aF0.2188
aF0.2969
aF0.2656
aF0.25
aF0.1562
aF0.1406
aF0.2656
aF0.1875
aF0.3125
aF0.2656
aF0.2656
aF0.2188
aF0.3438
aF0.3125
aF0.2344
aF0.2344
aF0.1875
aF0.1562
aF0.2188
aF0.1719
aF0.25
aF0.1719
aF0.1406
aF0.2344
aF0.25
aF0.1719
aF0.2188
aF0.25
aF0.2656
aF0.1875
aF0.1562
aF0.2188
aF0.1719
aF0.2969
aF0.3438
aF0.3125
aF0.3281
aF0.2969
aF0.2656
aF0.3125
aF0.2969
aF0.25
aF0.2969
aF0.3438
aF0.2812
aF0.25
aF0.2344
aF0.2812
aF0.2031
aF0.25
aF0.1875
aF0.1719
aF0.2031
aF0.2031
aF0.2969
aF0.2656
aF0.1719
aF0.2656
aF0.2188
aF0.2031
aF0.2344
aF0.25
aF0.3281
aF0.2969
aF0.2344
aF0.1562
aF0.25
aF0.2344
aF0.25
aF0.2188
aF0.2812
aF0.2344
aF0.25
aF0.2969
aF0.2656
aF0.2344
aF0.3281
aF0.3438
aF0.25
aF0.1719
aF0.2188
aF0.2188
aF0.3125
aF0.125
aF0.3281
aF0.2656
aF0.3594
aF0.25
aF0.3125
aF0.2188
aF0.2344
aF0.3281
aF0.3125
aF0.2969
aF0.2031
aF0.3125
aF0.2188
aF0.3281
aF0.2344
aF0.3281
aF0.1406
aF0.1719
aF0.2344
aF0.25
aF0.375
aF0.1562
aF0.25
aF0.2656
aF0.1406
aF0.2188
aF0.2812
aF0.2812
aF0.25
aF0.2031
aF0.2344
aF0.375
aF0.2656
aF0.2656
aF0.2812
aF0.3438
aF0.2812
aF0.2656
aF0.2344
aF0.2031
aF0.1406
aF0.2344
aF0.3438
aF0.2188
aF0.2656
asS'31.5'
p83
(lp84
F0.0
aF0.0156
aF0.0
aF0.0312
aF0.0312
aF0.0156
aF0.0
aF0.0156
aF0.0
aF0.0156
aF0.0156
aF0.0
aF0.0156
aF0.0156
aF0.0312
aF0.0156
aF0.0156
aF0.0
aF0.0156
aF0.0156
aF0.0156
aF0.0
aF0.0156
aF0.0156
aF0.0312
aF0.0312
aF0.0156
aF0.0156
aF0.0312
aF0.0
aF0.0312
aF0.0312
aF0.0156
aF0.0312
aF0.0156
aF0.0156
aF0.0156
aF0.0781
aF0.0
aF0.0156
aF0.0156
aF0.0156
aF0.0156
aF0.0469
aF0.0156
aF0.125
aF0.0312
aF0.0
aF0.0312
aF0.0156
aF0.0156
aF0.0156
aF0.0
aF0.0156
aF0.0625
aF0.0312
aF0.0156
aF0.0
aF0.0156
aF0.0
aF0.0312
aF0.0312
aF0.0156
aF0.0
aF0.0312
aF0.0312
aF0.0156
aF0.0
aF0.0312
aF0.0156
aF0.0156
aF0.0312
aF0.0
aF0.0312
aF0.0312
aF0.0156
aF0.0156
aF0.0156
aF0.0312
aF0.0
aF0.0156
aF0.0312
aF0.0156
aF0.0
aF0.0156
aF0.0
aF0.0156
aF0.0312
aF0.0312
aF0.0312
aF0.0312
aF0.0156
aF0.0312
aF0.0156
aF0.0
aF0.0156
aF0.0
aF0.0156
aF0.0312
aF0.0
aF0.0156
aF0.0312
aF0.0156
aF0.0156
aF0.0156
aF0.0312
aF0.0156
aF0.0156
aF0.0312
aF0.0
aF0.0
aF0.0
aF0.0156
aF0.0312
aF0.0156
aF0.0156
aF0.0156
aF0.0156
aF0.0156
aF0.0312
aF0.0156
aF0.0156
aF0.0156
aF0.0156
aF0.0156
aF0.0156
aF0.0156
aF0.0156
aF0.0156
aF0.0
aF0.0312
aF0.0
aF0.0312
aF0.0156
aF0.0
aF0.0
aF0.0156
aF0.0156
aF0.0156
aF0.0156
aF0.0156
aF0.0156
aF0.0
aF0.0
aF0.0156
aF0.0156
aF0.0312
aF0.0156
aF0.0156
aF0.0312
aF0.0156
aF0.0312
aF0.0469
aF0.0
aF0.0312
aF0.0156
aF0.0312
aF0.0156
aF0.0312
aF0.0938
aF0.0156
aF0.0
aF0.0156
aF0.0156
aF0.0156
aF0.0312
aF0.0312
aF0.0312
aF0.0156
aF0.0312
aF0.0312
aF0.0156
aF0.0156
aF0.0156
aF0.0156
aF0.0156
aF0.0312
aF0.0156
aF0.0
aF0.0
aF0.0
aF0.0
aF0.0156
aF0.0312
aF0.0938
aF0.0312
aF0.0156
aF0.0
aF0.0312
aF0.0312
aF0.0938
aF0.0312
aF0.0
aF0.0312
aF0.0156
aF0.0312
aF0.0156
aF0.0156
aF0.0156
aF0.0156
aF0.0156
aF0.0
aF0.0156
aF0.0156
aF0.0312
aF0.0
aF0.0
aF0.0156
aF0.0156
aF0.0
aF0.0312
aF0.0156
aF0.0156
aF0.0156
aF0.0156
aF0.0
aF0.0312
aF0.0312
aF0.0
aF0.0
aF0.0312
aF0.0
aF0.0
aF0.0156
aF0.0
aF0.0156
aF0.0156
aF0.0156
aF0.0156
aF0.0156
aF0.0156
aF0.0
aF0.0312
aF0.0156
aF0.0
aF0.0156
aF0.0156
aF0.0156
aF0.0156
aF0.0156
aF0.0156
aF0.0312
aF0.0156
aF0.0156
aF0.0
aF0.0312
aF0.0
aF0.0156
aF0.0156
aF0.0156
asS'136.5'
p85
(lp86
F0.2656
aF0.2031
aF0.2656
aF0.1875
aF0.2812
aF0.2188
aF0.2969
aF0.1875
aF0.1875
aF0.25
aF0.25
aF0.25
aF0.25
aF0.2969
aF0.2031
aF0.2031
aF0.2656
aF0.1719
aF0.2188
aF0.2656
aF0.2656
aF0.2344
aF0.2812
aF0.2031
aF0.3281
aF0.2812
aF0.2969
aF0.4375
aF0.2031
aF0.3125
aF0.25
aF0.2656
aF0.3125
aF0.2344
aF0.2031
aF0.1875
aF0.2969
aF0.3281
aF0.25
aF0.2969
aF0.2656
aF0.2812
aF0.25
aF0.2344
aF0.1094
aF0.25
aF0.2812
aF0.25
aF0.2969
aF0.2969
aF0.25
aF0.2188
aF0.2812
aF0.2188
aF0.2344
aF0.3281
aF0.2656
aF0.2031
aF0.2656
aF0.2812
aF0.1719
aF0.25
aF0.2344
aF0.2188
aF0.25
aF0.2031
aF0.1875
aF0.3125
aF0.3438
aF0.2656
aF0.25
aF0.2188
aF0.2188
aF0.25
aF0.2656
aF0.2969
aF0.3438
aF0.2188
aF0.2344
aF0.2656
aF0.25
aF0.2188
aF0.3594
aF0.2656
aF0.2812
aF0.2656
aF0.2969
aF0.2969
aF0.2188
aF0.1719
aF0.2344
aF0.2969
aF0.3125
aF0.3438
aF0.1719
aF0.25
aF0.2656
aF0.2969
aF0.2656
aF0.2656
aF0.2812
aF0.2969
aF0.2344
aF0.3125
aF0.1406
aF0.1719
aF0.25
aF0.2344
aF0.2812
aF0.2188
aF0.3438
aF0.2344
aF0.1875
aF0.2812
aF0.3906
aF0.3594
aF0.3438
aF0.2344
aF0.2812
aF0.1875
aF0.25
aF0.1719
aF0.2656
aF0.2969
aF0.2188
aF0.2969
aF0.4219
aF0.25
aF0.2812
aF0.1875
aF0.25
aF0.2344
aF0.25
aF0.3438
aF0.1719
aF0.3438
aF0.2344
aF0.25
aF0.2031
aF0.25
aF0.3281
aF0.3594
aF0.2188
aF0.2344
aF0.2969
aF0.2344
aF0.2656
aF0.3438
aF0.0938
aF0.2344
aF0.2188
aF0.2656
aF0.25
aF0.25
aF0.25
aF0.1875
aF0.2344
aF0.2812
aF0.25
aF0.2812
aF0.3125
aF0.2656
aF0.2344
aF0.3281
aF0.1406
aF0.1875
aF0.2344
aF0.2344
aF0.25
aF0.2656
aF0.2812
aF0.1406
aF0.1562
aF0.2969
aF0.2188
aF0.3125
aF0.2969
aF0.2656
aF0.2188
aF0.2344
aF0.2344
aF0.25
aF0.375
aF0.2188
aF0.1875
aF0.2031
aF0.2812
aF0.1562
aF0.2969
aF0.2812
aF0.2031
aF0.2812
aF0.2656
aF0.2031
aF0.2656
aF0.2344
aF0.25
aF0.2344
aF0.25
aF0.2656
aF0.2656
aF0.25
aF0.2969
aF0.2031
aF0.2812
aF0.2031
aF0.25
aF0.2031
aF0.3125
aF0.2188
aF0.25
aF0.2188
aF0.3125
aF0.3125
aF0.2031
aF0.1875
aF0.2656
aF0.3906
aF0.3594
aF0.2188
aF0.2656
aF0.2031
aF0.25
aF0.2656
aF0.25
aF0.2031
aF0.2031
aF0.25
aF0.3281
aF0.2812
aF0.1562
aF0.2344
aF0.3125
aF0.2031
aF0.25
aF0.1719
aF0.2031
aF0.2031
aF0.25
aF0.375
aF0.375
aF0.3125
aF0.2656
aF0.2344
aF0.2344
aF0.2031
aF0.1719
aF0.25
aF0.2031
aF0.2031
asS'115.5'
p87
(lp88
F0.0938
aF0.2656
aF0.2344
aF0.2188
aF0.1562
aF0.1875
aF0.1719
aF0.1094
aF0.1094
aF0.1719
aF0.1406
aF0.1719
aF0.0781
aF0.1406
aF0.2031
aF0.1406
aF0.0938
aF0.1094
aF0.1406
aF0.2188
aF0.0938
aF0.1875
aF0.0938
aF0.1562
aF0.1562
aF0.1719
aF0.1406
aF0.1562
aF0.1719
aF0.1719
aF0.1406
aF0.1719
aF0.2031
aF0.125
aF0.125
aF0.1719
aF0.1562
aF0.1719
aF0.1875
aF0.2188
aF0.2188
aF0.1719
aF0.1875
aF0.1094
aF0.25
aF0.1406
aF0.1094
aF0.2188
aF0.125
aF0.1094
aF0.2031
aF0.125
aF0.1719
aF0.2031
aF0.0625
aF0.1094
aF0.1094
aF0.125
aF0.2812
aF0.0625
aF0.0938
aF0.1406
aF0.3125
aF0.125
aF0.1094
aF0.1406
aF0.1094
aF0.125
aF0.2188
aF0.1875
aF0.1875
aF0.1094
aF0.0469
aF0.1719
aF0.0938
aF0.1875
aF0.1094
aF0.1719
aF0.2188
aF0.1719
aF0.1406
aF0.1094
aF0.2031
aF0.1094
aF0.1719
aF0.0781
aF0.2188
aF0.1719
aF0.25
aF0.1406
aF0.1562
aF0.1875
aF0.125
aF0.25
aF0.1406
aF0.1406
aF0.1875
aF0.1094
aF0.0781
aF0.125
aF0.1562
aF0.1406
aF0.1562
aF0.2188
aF0.125
aF0.0938
aF0.0625
aF0.2344
aF0.1406
aF0.2188
aF0.125
aF0.1719
aF0.1562
aF0.1094
aF0.1719
aF0.0625
aF0.1719
aF0.3438
aF0.1406
aF0.1094
aF0.1562
aF0.125
aF0.0938
aF0.1406
aF0.0781
aF0.1406
aF0.1094
aF0.1875
aF0.1094
aF0.1406
aF0.0938
aF0.1406
aF0.2344
aF0.0312
aF0.2656
aF0.1406
aF0.1875
aF0.2188
aF0.1719
aF0.0469
aF0.1094
aF0.0938
aF0.1406
aF0.1094
aF0.2031
aF0.2031
aF0.2031
aF0.1094
aF0.1562
aF0.1562
aF0.1094
aF0.2656
aF0.125
aF0.0469
aF0.2969
aF0.2188
aF0.1719
aF0.1875
aF0.2031
aF0.1875
aF0.1875
aF0.1875
aF0.0625
aF0.0938
aF0.1406
aF0.1406
aF0.1719
aF0.0625
aF0.2031
aF0.2031
aF0.2812
aF0.2344
aF0.1875
aF0.1094
aF0.125
aF0.1094
aF0.125
aF0.1094
aF0.1875
aF0.25
aF0.1562
aF0.2344
aF0.2188
aF0.0938
aF0.1719
aF0.1562
aF0.1562
aF0.125
aF0.1094
aF0.1406
aF0.1406
aF0.0781
aF0.25
aF0.1719
aF0.1406
aF0.0938
aF0.125
aF0.1719
aF0.0781
aF0.1719
aF0.125
aF0.0625
aF0.1719
aF0.2344
aF0.0312
aF0.125
aF0.2031
aF0.1875
aF0.1094
aF0.2188
aF0.1406
aF0.1875
aF0.2031
aF0.2031
aF0.0781
aF0.2031
aF0.1406
aF0.1406
aF0.1719
aF0.1719
aF0.1406
aF0.1406
aF0.125
aF0.125
aF0.2656
aF0.1562
aF0.1094
aF0.2031
aF0.0938
aF0.1719
aF0.1875
aF0.1406
aF0.1094
aF0.1719
aF0.2031
aF0.0938
aF0.1094
aF0.1875
aF0.0781
aF0.1719
aF0.1406
aF0.0938
aF0.1406
aF0.1562
aF0.1719
aF0.125
aF0.2969
aF0.0781
aF0.1875
aF0.125
asS'49.0'
p89
(lp90
F0.0469
aF0.0469
aF0.0312
aF0.0469
aF0.0312
aF0.0469
aF0.0156
aF0.0156
aF0.0312
aF0.0781
aF0.0312
aF0.0312
aF0.0469
aF0.0312
aF0.0312
aF0.0312
aF0.0312
aF0.0312
aF0.0312
aF0.0781
aF0.0312
aF0.0312
aF0.0156
aF0.0312
aF0.0625
aF0.0312
aF0.0469
aF0.0312
aF0.0625
aF0.0312
aF0.0312
aF0.0312
aF0.0625
aF0.0156
aF0.0312
aF0.0156
aF0.0
aF0.0469
aF0.0156
aF0.0469
aF0.0156
aF0.0469
aF0.0312
aF0.0625
aF0.0312
aF0.0469
aF0.0469
aF0.0625
aF0.0156
aF0.0312
aF0.0469
aF0.0156
aF0.0625
aF0.0312
aF0.0
aF0.0156
aF0.0156
aF0.0469
aF0.0156
aF0.0312
aF0.0156
aF0.0156
aF0.0312
aF0.0312
aF0.0312
aF0.0312
aF0.0469
aF0.0156
aF0.0781
aF0.0156
aF0.0
aF0.0156
aF0.0312
aF0.0312
aF0.0625
aF0.0312
aF0.0156
aF0.0156
aF0.0156
aF0.0625
aF0.0156
aF0.0156
aF0.0469
aF0.0469
aF0.0312
aF0.0312
aF0.0469
aF0.0312
aF0.0312
aF0.0625
aF0.0156
aF0.0469
aF0.0312
aF0.0156
aF0.0156
aF0.0
aF0.0625
aF0.0312
aF0.0625
aF0.0312
aF0.0469
aF0.0156
aF0.0312
aF0.0781
aF0.0469
aF0.0469
aF0.0781
aF0.0469
aF0.0469
aF0.0312
aF0.0312
aF0.0312
aF0.0469
aF0.0469
aF0.0312
aF0.0156
aF0.0156
aF0.0469
aF0.0469
aF0.0156
aF0.0625
aF0.0469
aF0.0312
aF0.0469
aF0.0312
aF0.0312
aF0.0469
aF0.0625
aF0.0156
aF0.0312
aF0.0312
aF0.0312
aF0.0156
aF0.0312
aF0.0625
aF0.0469
aF0.0156
aF0.0781
aF0.0469
aF0.0312
aF0.0156
aF0.0156
aF0.0469
aF0.0156
aF0.0156
aF0.0156
aF0.0312
aF0.0469
aF0.0625
aF0.0156
aF0.0156
aF0.0469
aF0.0469
aF0.0312
aF0.0625
aF0.0469
aF0.0469
aF0.0
aF0.0469
aF0.0156
aF0.0
aF0.0312
aF0.0625
aF0.0312
aF0.0625
aF0.0469
aF0.0469
aF0.0625
aF0.0625
aF0.0469
aF0.0312
aF0.0625
aF0.0938
aF0.0156
aF0.125
aF0.0312
aF0.0312
aF0.0312
aF0.0469
aF0.0312
aF0.0625
aF0.0625
aF0.0312
aF0.0469
aF0.0312
aF0.0625
aF0.0469
aF0.0469
aF0.0469
aF0.0469
aF0.0469
aF0.0469
aF0.0469
aF0.0625
aF0.0625
aF0.0469
aF0.0312
aF0.0469
aF0.0625
aF0.0312
aF0.0156
aF0.0312
aF0.0312
aF0.0469
aF0.0312
aF0.0469
aF0.0312
aF0.0312
aF0.0625
aF0.0469
aF0.0312
aF0.0625
aF0.0312
aF0.0312
aF0.0312
aF0.0625
aF0.0469
aF0.0312
aF0.0312
aF0.0312
aF0.0469
aF0.0312
aF0.0312
aF0.0469
aF0.0156
aF0.0469
aF0.0312
aF0.0312
aF0.0156
aF0.0625
aF0.0625
aF0.0469
aF0.0469
aF0.0625
aF0.0312
aF0.0469
aF0.0469
aF0.1562
aF0.0469
aF0.0
aF0.0156
aF0.0
aF0.0625
aF0.0312
aF0.0469
aF0.0469
aF0.0312
aF0.0312
aF0.0625
aF0.0469
as.